; ModuleID = 'output.temp.bc'
source_filename = "share2.cpp"
target datalayout = "e-m:e-i64:64-f80:128-n8:16:32:64-S128"
target triple = "x86_64-unknown-linux-gnu"

%"class.std::ios_base::Init" = type { i8 }
%"class.std::basic_ostream" = type { i32 (...)**, %"class.std::basic_ios" }
%"class.std::basic_ios" = type { %"class.std::ios_base", %"class.std::basic_ostream"*, i8, i8, %"class.std::basic_streambuf"*, %"class.std::ctype"*, %"class.std::num_put"*, %"class.std::num_get"* }
%"class.std::ios_base" = type { i32 (...)**, i64, i64, i32, i32, i32, %"struct.std::ios_base::_Callback_list"*, %"struct.std::ios_base::_Words", [8 x %"struct.std::ios_base::_Words"], i32, %"struct.std::ios_base::_Words"*, %"class.std::locale" }
%"struct.std::ios_base::_Callback_list" = type { %"struct.std::ios_base::_Callback_list"*, void (i32, %"class.std::ios_base"*, i32)*, i32, i32 }
%"struct.std::ios_base::_Words" = type { i8*, i64 }
%"class.std::locale" = type { %"class.std::locale::_Impl"* }
%"class.std::locale::_Impl" = type { i32, %"class.std::locale::facet"**, i64, %"class.std::locale::facet"**, i8** }
%"class.std::locale::facet" = type <{ i32 (...)**, i32, [4 x i8] }>
%"class.std::basic_streambuf" = type { i32 (...)**, i8*, i8*, i8*, i8*, i8*, i8*, %"class.std::locale" }
%"class.std::ctype" = type <{ %"class.std::locale::facet.base", [4 x i8], %struct.__locale_struct*, i8, [7 x i8], i32*, i32*, i16*, i8, [256 x i8], [256 x i8], i8, [6 x i8] }>
%"class.std::locale::facet.base" = type <{ i32 (...)**, i32 }>
%struct.__locale_struct = type { [13 x %struct.__locale_data*], i16*, i32*, i32*, [13 x i8*] }
%struct.__locale_data = type opaque
%"class.std::num_put" = type { %"class.std::locale::facet.base", [4 x i8] }
%"class.std::num_get" = type { %"class.std::locale::facet.base", [4 x i8] }
%"class.std::shared_ptr.6" = type { %"class.std::__shared_ptr.7" }
%"class.std::__shared_ptr.7" = type { %"class.Kalmar::KalmarQueue"*, %"class.std::__shared_count" }
%"class.Kalmar::KalmarQueue" = type { i32 (...)**, %"class.Kalmar::KalmarDevice"*, i32, i32, i64 }
%"class.Kalmar::KalmarDevice" = type <{ i32 (...)**, i32, [4 x i8], %"class.std::map", %"class.std::mutex", i8, [7 x i8] }>
%"class.std::map" = type { %"class.std::_Rb_tree" }
%"class.std::_Rb_tree" = type { %"struct.std::_Rb_tree<std::thread::id, std::pair<const std::thread::id, std::shared_ptr<Kalmar::KalmarQueue> >, std::_Select1st<std::pair<const std::thread::id, std::shared_ptr<Kalmar::KalmarQueue> > >, std::less<std::thread::id>, std::allocator<std::pair<const std::thread::id, std::shared_ptr<Kalmar::KalmarQueue> > > >::_Rb_tree_impl" }
%"struct.std::_Rb_tree<std::thread::id, std::pair<const std::thread::id, std::shared_ptr<Kalmar::KalmarQueue> >, std::_Select1st<std::pair<const std::thread::id, std::shared_ptr<Kalmar::KalmarQueue> > >, std::less<std::thread::id>, std::allocator<std::pair<const std::thread::id, std::shared_ptr<Kalmar::KalmarQueue> > > >::_Rb_tree_impl" = type { %"struct.std::less", %"struct.std::_Rb_tree_node_base", i64 }
%"struct.std::less" = type { i8 }
%"struct.std::_Rb_tree_node_base" = type { i32, %"struct.std::_Rb_tree_node_base"*, %"struct.std::_Rb_tree_node_base"*, %"struct.std::_Rb_tree_node_base"* }
%"class.std::mutex" = type { %"class.std::__mutex_base" }
%"class.std::__mutex_base" = type { %union.pthread_mutex_t }
%union.pthread_mutex_t = type { %"struct.(anonymous union)::__pthread_mutex_s" }
%"struct.(anonymous union)::__pthread_mutex_s" = type { i32, i32, i32, i32, i32, i16, i16, %struct.__pthread_internal_list }
%struct.__pthread_internal_list = type { %struct.__pthread_internal_list*, %struct.__pthread_internal_list* }
%"class.std::__shared_count" = type { %"class.std::_Sp_counted_base"* }
%"class.std::_Sp_counted_base" = type { i32 (...)**, i32, i32 }
%struct._IO_FILE = type { i32, i8*, i8*, i8*, i8*, i8*, i8*, i8*, i8*, i8*, i8*, i8*, %struct._IO_marker*, %struct._IO_FILE*, i32, i32, i64, i16, i8, [1 x i8], i8*, i64, i8*, i8*, i8*, i8*, i64, i32, [20 x i8] }
%struct._IO_marker = type { %struct._IO_marker*, %struct._IO_FILE*, i32 }
%"struct.std::piecewise_construct_t" = type { i8 }
%"class.Kalmar::index" = type { %"struct.Kalmar::index_impl" }
%"struct.Kalmar::index_impl" = type { %"class.Kalmar::__index_leaf" }
%"class.Kalmar::__index_leaf" = type { i32, i32 }
%"class.Kalmar::index.0" = type { %"struct.Kalmar::index_impl.1" }
%"struct.Kalmar::index_impl.1" = type { %"class.Kalmar::__index_leaf", %"class.Kalmar::__index_leaf.2" }
%"class.Kalmar::__index_leaf.2" = type { i32, i32 }
%"class.Kalmar::index.3" = type { %"struct.Kalmar::index_impl.4" }
%"struct.Kalmar::index_impl.4" = type { %"class.Kalmar::__index_leaf", %"class.Kalmar::__index_leaf.2", %"class.Kalmar::__index_leaf.5" }
%"class.Kalmar::__index_leaf.5" = type { i32, i32 }
%"class.hc::array_view" = type { %"class.Kalmar::_data_host", %"class.hc::extent", %"class.hc::extent", %"class.Kalmar::index", i32, [4 x i8] }
%"class.Kalmar::_data_host" = type <{ %"class.std::shared_ptr", i8, [7 x i8] }>
%"class.std::shared_ptr" = type { %"class.std::__shared_ptr" }
%"class.std::__shared_ptr" = type { %"struct.Kalmar::rw_info"*, %"class.std::__shared_count" }
%"struct.Kalmar::rw_info" = type <{ i8*, i64, %"class.std::shared_ptr.6", %"class.std::shared_ptr.6", %"class.std::shared_ptr.6", %"class.std::map.8", i32, i8, i8, [2 x i8] }>
%"class.std::map.8" = type { %"class.std::_Rb_tree.9" }
%"class.std::_Rb_tree.9" = type { %"struct.std::_Rb_tree<Kalmar::KalmarDevice *, std::pair<Kalmar::KalmarDevice *const, Kalmar::dev_info>, std::_Select1st<std::pair<Kalmar::KalmarDevice *const, Kalmar::dev_info> >, std::less<Kalmar::KalmarDevice *>, std::allocator<std::pair<Kalmar::KalmarDevice *const, Kalmar::dev_info> > >::_Rb_tree_impl" }
%"struct.std::_Rb_tree<Kalmar::KalmarDevice *, std::pair<Kalmar::KalmarDevice *const, Kalmar::dev_info>, std::_Select1st<std::pair<Kalmar::KalmarDevice *const, Kalmar::dev_info> >, std::less<Kalmar::KalmarDevice *>, std::allocator<std::pair<Kalmar::KalmarDevice *const, Kalmar::dev_info> > >::_Rb_tree_impl" = type { %"struct.std::less.13", %"struct.std::_Rb_tree_node_base", i64 }
%"struct.std::less.13" = type { i8 }
%"class.hc::extent" = type { %"struct.Kalmar::index_impl" }
%"class.hc::completion_future" = type { %"class.std::shared_future", %"class.std::thread"*, %"class.std::shared_ptr.19" }
%"class.std::shared_future" = type { %"class.std::__basic_future" }
%"class.std::__basic_future" = type { %"class.std::shared_ptr.15" }
%"class.std::shared_ptr.15" = type { %"class.std::__shared_ptr.16" }
%"class.std::__shared_ptr.16" = type { %"class.std::__future_base::_State_baseV2"*, %"class.std::__shared_count" }
%"class.std::__future_base::_State_baseV2" = type <{ i32 (...)**, %"class.std::unique_ptr", %"class.std::__atomic_futex_unsigned", %"struct.std::atomic_flag", [3 x i8], %"struct.std::once_flag", [4 x i8] }>
%"class.std::unique_ptr" = type { %"class.std::tuple" }
%"class.std::tuple" = type { %"struct.std::_Tuple_impl" }
%"struct.std::_Tuple_impl" = type { %"struct.std::_Head_base.18" }
%"struct.std::_Head_base.18" = type { %"struct.std::__future_base::_Result_base"* }
%"struct.std::__future_base::_Result_base" = type { i32 (...)**, %"class.std::__exception_ptr::exception_ptr" }
%"class.std::__exception_ptr::exception_ptr" = type { i8* }
%"class.std::__atomic_futex_unsigned" = type { %"struct.std::atomic" }
%"struct.std::atomic" = type { %"struct.std::__atomic_base" }
%"struct.std::__atomic_base" = type { i32 }
%"struct.std::atomic_flag" = type { %struct.__atomic_flag_base }
%struct.__atomic_flag_base = type { i8 }
%"struct.std::once_flag" = type { i32 }
%"class.std::thread" = type { %"class.std::thread::id" }
%"class.std::thread::id" = type { i64 }
%"class.std::shared_ptr.19" = type { %"class.std::__shared_ptr.20" }
%"class.std::__shared_ptr.20" = type { %"class.Kalmar::KalmarAsyncOp"*, %"class.std::__shared_count" }
%"class.Kalmar::KalmarAsyncOp" = type { i32 (...)**, %"class.Kalmar::KalmarQueue"*, i32, i64 }
%class.anon = type { %"class.hc::array_view", i32, [4 x i8] }
%"class.hc::accelerator_view" = type { %"class.std::shared_ptr.6" }
%"struct.std::chrono::duration" = type { i64 }
%"struct.std::chrono::duration.21" = type { i64 }
%"struct.std::__atomic_futex_unsigned_base" = type { i8 }
%"class.std::allocator.22" = type { i8 }
%"struct.std::_Sp_make_shared_tag" = type { i8 }
%"class.__gnu_cxx::new_allocator.23" = type { i8 }
%"class.std::type_info" = type { i32 (...)**, i8* }
%"class.std::allocator.25" = type { i8 }
%"struct.std::__allocated_ptr" = type { %"class.std::allocator.25"*, %"class.std::_Sp_counted_ptr_inplace"* }
%"class.std::_Sp_counted_ptr_inplace" = type { %"class.std::_Sp_counted_base", %"class.std::_Sp_counted_ptr_inplace<Kalmar::rw_info, std::allocator<Kalmar::rw_info>, __gnu_cxx::_Lock_policy::_S_atomic>::_Impl" }
%"class.std::_Sp_counted_ptr_inplace<Kalmar::rw_info, std::allocator<Kalmar::rw_info>, __gnu_cxx::_Lock_policy::_S_atomic>::_Impl" = type { %"struct.__gnu_cxx::__aligned_buffer" }
%"struct.__gnu_cxx::__aligned_buffer" = type { %"union.std::aligned_storage<120, 8>::type" }
%"union.std::aligned_storage<120, 8>::type" = type { [120 x i8] }
%"class.__gnu_cxx::new_allocator.26" = type { i8 }
%"class.std::_Mutex_base" = type { i8 }
%"struct.std::_Sp_ebo_helper" = type { i8 }
%"struct.Kalmar::dev_info" = type { i8*, i32 }
%"class.std::__cxx11::basic_string" = type { %"struct.std::__cxx11::basic_string<wchar_t, std::char_traits<wchar_t>, std::allocator<wchar_t> >::_Alloc_hider", i64, %union.anon }
%"struct.std::__cxx11::basic_string<wchar_t, std::char_traits<wchar_t>, std::allocator<wchar_t> >::_Alloc_hider" = type { i32* }
%union.anon = type { i64, [8 x i8] }
%"class.std::allocator.31" = type { i8 }
%"class.Kalmar::KalmarContext" = type <{ i32 (...)**, %"class.Kalmar::KalmarDevice"*, %"class.std::vector", i8, [7 x i8] }>
%"class.std::vector" = type { %"struct.std::_Vector_base" }
%"struct.std::_Vector_base" = type { %"struct.std::_Vector_base<Kalmar::KalmarDevice *, std::allocator<Kalmar::KalmarDevice *> >::_Vector_impl" }
%"struct.std::_Vector_base<Kalmar::KalmarDevice *, std::allocator<Kalmar::KalmarDevice *> >::_Vector_impl" = type { %"class.Kalmar::KalmarDevice"**, %"class.Kalmar::KalmarDevice"**, %"class.Kalmar::KalmarDevice"** }
%"struct.std::_Rb_tree_iterator.41" = type { %"struct.std::_Rb_tree_node_base"* }
%"struct.std::_Rb_tree_const_iterator.43" = type { %"struct.std::_Rb_tree_node_base"* }
%"class.std::tuple.44" = type { %"struct.std::_Tuple_impl.45" }
%"struct.std::_Tuple_impl.45" = type { %"struct.std::_Head_base.46" }
%"struct.std::_Head_base.46" = type { %"class.Kalmar::KalmarDevice"** }
%"class.std::tuple.38" = type { i8 }
%"struct.std::pair.42" = type { %"class.Kalmar::KalmarDevice"*, %"struct.Kalmar::dev_info" }
%"class.std::allocator.10" = type { i8 }
%"class.__gnu_cxx::new_allocator.11" = type { i8 }
%"class.__gnu_cxx::__normal_iterator" = type { %"class.Kalmar::KalmarDevice"** }
%class.anon.34 = type { %"class.std::__cxx11::basic_string"* }
%"struct.std::_Rb_tree_iterator" = type { %"struct.std::_Rb_tree_node_base"* }
%"struct.__gnu_cxx::__ops::_Iter_pred" = type { %class.anon.34 }
%"struct.std::random_access_iterator_tag" = type { i8 }
%"struct.std::_Rb_tree_const_iterator" = type { %"struct.std::_Rb_tree_node_base"* }
%"class.std::tuple.35" = type { %"struct.std::_Tuple_impl.36" }
%"struct.std::_Tuple_impl.36" = type { %"struct.std::_Head_base.37" }
%"struct.std::_Head_base.37" = type { %"class.std::thread::id"* }
%"struct.std::pair" = type { %"class.std::thread::id", %"class.std::shared_ptr.6" }
%"struct.std::_Rb_tree_node" = type { %"struct.std::_Rb_tree_node_base", %"struct.__gnu_cxx::__aligned_membuf" }
%"struct.__gnu_cxx::__aligned_membuf" = type { [24 x i8] }
%"struct.std::_Select1st" = type { i8 }
%"struct.std::pair.39" = type { %"struct.std::_Rb_tree_node_base"*, %"struct.std::_Rb_tree_node_base"* }
%"class.std::allocator" = type { i8 }
%"class.__gnu_cxx::new_allocator" = type { i8 }
%"struct.std::_Index_tuple" = type { i8 }
%"struct.std::_Index_tuple.40" = type { i8 }
%"struct.std::_Rb_tree_node.47" = type { %"struct.std::_Rb_tree_node_base", %"struct.__gnu_cxx::__aligned_membuf.48" }
%"struct.__gnu_cxx::__aligned_membuf.48" = type { [24 x i8] }
%"struct.std::_Select1st.49" = type { i8 }
%"class.std::tuple.51" = type { %"struct.std::_Tuple_impl.52" }
%"struct.std::_Tuple_impl.52" = type { %"struct.std::_Tuple_impl.53", %"struct.std::_Head_base.55" }
%"struct.std::_Tuple_impl.53" = type { %"struct.std::_Head_base.54" }
%"struct.std::_Head_base.54" = type { %"struct.Kalmar::dev_info"* }
%"struct.std::_Head_base.55" = type { %"class.Kalmar::KalmarDevice"** }
%"class.std::tuple.56" = type { %"struct.std::_Tuple_impl.57" }
%"struct.std::_Tuple_impl.57" = type { %"struct.std::_Head_base.58" }
%"struct.std::_Head_base.58" = type { %"class.Kalmar::KalmarDevice"** }
%"struct.std::pair.59" = type { %"struct.std::_Rb_tree_iterator.41", %"struct.std::_Rb_tree_iterator.41" }
%"class.std::__cxx11::basic_string.60" = type { %"struct.std::__cxx11::basic_string<char, std::char_traits<char>, std::allocator<char> >::_Alloc_hider", i64, %union.anon.64 }
%"struct.std::__cxx11::basic_string<char, std::char_traits<char>, std::allocator<char> >::_Alloc_hider" = type { i8* }
%union.anon.64 = type { i64, [8 x i8] }
%"class.std::allocator.61" = type { i8 }
%"class.hc::accelerator" = type { %"class.Kalmar::KalmarDevice"* }
%"class.Kalmar::invalid_compute_domain" = type { %"class.Kalmar::runtime_exception.base", [4 x i8] }
%"class.Kalmar::runtime_exception.base" = type <{ %"class.std::exception", %"class.std::__cxx11::basic_string.60", i32 }>
%"class.std::exception" = type { i32 (...)** }
%"class.Kalmar::runtime_exception" = type <{ %"class.std::exception", %"class.std::__cxx11::basic_string.60", i32, [4 x i8] }>
%"struct.std::__future_base" = type { i8 }
%"class.Kalmar::BufferArgumentsAppender" = type <{ %"class.Kalmar::FunctorBufferWalker", %"class.std::shared_ptr.6", i8*, i32, [4 x i8] }>
%"class.Kalmar::FunctorBufferWalker" = type { i32 (...)** }
%"class.Kalmar::Serialize" = type { %"class.Kalmar::FunctorBufferWalker"* }

@_ZStL8__ioinit = internal global %"class.std::ios_base::Init" zeroinitializer, align 1
@__dso_handle = external hidden global i8
@_ZSt4cout = external global %"class.std::basic_ostream", align 8
@.str = private unnamed_addr constant [6 x i8] c"end: \00", align 1
@_ZZL18__gthread_active_pvE20__gthread_active_ptr = internal constant i8* bitcast (i32 (i32*, void (i8*)*)* @__pthread_key_create to i8*), align 8
@_ZTVN10__cxxabiv117__class_type_infoE = external global i8*
@_ZTSSt19_Sp_make_shared_tag = linkonce_odr constant [24 x i8] c"St19_Sp_make_shared_tag\00"
@_ZTISt19_Sp_make_shared_tag = linkonce_odr constant { i8*, i8* } { i8* bitcast (i8** getelementptr inbounds (i8*, i8** @_ZTVN10__cxxabiv117__class_type_infoE, i64 2) to i8*), i8* getelementptr inbounds ([24 x i8], [24 x i8]* @_ZTSSt19_Sp_make_shared_tag, i32 0, i32 0) }
@_ZTVSt23_Sp_counted_ptr_inplaceIN6Kalmar7rw_infoESaIS1_ELN9__gnu_cxx12_Lock_policyE2EE = linkonce_odr unnamed_addr constant { [7 x i8*] } { [7 x i8*] [i8* null, i8* bitcast ({ i8*, i8*, i8* }* @_ZTISt23_Sp_counted_ptr_inplaceIN6Kalmar7rw_infoESaIS1_ELN9__gnu_cxx12_Lock_policyE2EE to i8*), i8* bitcast (void (%"class.std::_Sp_counted_ptr_inplace"*)* @_ZNSt23_Sp_counted_ptr_inplaceIN6Kalmar7rw_infoESaIS1_ELN9__gnu_cxx12_Lock_policyE2EED2Ev to i8*), i8* bitcast (void (%"class.std::_Sp_counted_ptr_inplace"*)* @_ZNSt23_Sp_counted_ptr_inplaceIN6Kalmar7rw_infoESaIS1_ELN9__gnu_cxx12_Lock_policyE2EED0Ev to i8*), i8* bitcast (void (%"class.std::_Sp_counted_ptr_inplace"*)* @_ZNSt23_Sp_counted_ptr_inplaceIN6Kalmar7rw_infoESaIS1_ELN9__gnu_cxx12_Lock_policyE2EE10_M_disposeEv to i8*), i8* bitcast (void (%"class.std::_Sp_counted_ptr_inplace"*)* @_ZNSt23_Sp_counted_ptr_inplaceIN6Kalmar7rw_infoESaIS1_ELN9__gnu_cxx12_Lock_policyE2EE10_M_destroyEv to i8*), i8* bitcast (i8* (%"class.std::_Sp_counted_ptr_inplace"*, %"class.std::type_info"*)* @_ZNSt23_Sp_counted_ptr_inplaceIN6Kalmar7rw_infoESaIS1_ELN9__gnu_cxx12_Lock_policyE2EE14_M_get_deleterERKSt9type_info to i8*)] }, align 8
@_ZTVN10__cxxabiv120__si_class_type_infoE = external global i8*
@_ZTSSt23_Sp_counted_ptr_inplaceIN6Kalmar7rw_infoESaIS1_ELN9__gnu_cxx12_Lock_policyE2EE = linkonce_odr constant [83 x i8] c"St23_Sp_counted_ptr_inplaceIN6Kalmar7rw_infoESaIS1_ELN9__gnu_cxx12_Lock_policyE2EE\00"
@_ZTSSt16_Sp_counted_baseILN9__gnu_cxx12_Lock_policyE2EE = linkonce_odr constant [52 x i8] c"St16_Sp_counted_baseILN9__gnu_cxx12_Lock_policyE2EE\00"
@_ZTSSt11_Mutex_baseILN9__gnu_cxx12_Lock_policyE2EE = linkonce_odr constant [47 x i8] c"St11_Mutex_baseILN9__gnu_cxx12_Lock_policyE2EE\00"
@_ZTISt11_Mutex_baseILN9__gnu_cxx12_Lock_policyE2EE = linkonce_odr constant { i8*, i8* } { i8* bitcast (i8** getelementptr inbounds (i8*, i8** @_ZTVN10__cxxabiv117__class_type_infoE, i64 2) to i8*), i8* getelementptr inbounds ([47 x i8], [47 x i8]* @_ZTSSt11_Mutex_baseILN9__gnu_cxx12_Lock_policyE2EE, i32 0, i32 0) }
@_ZTISt16_Sp_counted_baseILN9__gnu_cxx12_Lock_policyE2EE = linkonce_odr constant { i8*, i8*, i8* } { i8* bitcast (i8** getelementptr inbounds (i8*, i8** @_ZTVN10__cxxabiv120__si_class_type_infoE, i64 2) to i8*), i8* getelementptr inbounds ([52 x i8], [52 x i8]* @_ZTSSt16_Sp_counted_baseILN9__gnu_cxx12_Lock_policyE2EE, i32 0, i32 0), i8* bitcast ({ i8*, i8* }* @_ZTISt11_Mutex_baseILN9__gnu_cxx12_Lock_policyE2EE to i8*) }
@_ZTISt23_Sp_counted_ptr_inplaceIN6Kalmar7rw_infoESaIS1_ELN9__gnu_cxx12_Lock_policyE2EE = linkonce_odr constant { i8*, i8*, i8* } { i8* bitcast (i8** getelementptr inbounds (i8*, i8** @_ZTVN10__cxxabiv120__si_class_type_infoE, i64 2) to i8*), i8* getelementptr inbounds ([83 x i8], [83 x i8]* @_ZTSSt23_Sp_counted_ptr_inplaceIN6Kalmar7rw_infoESaIS1_ELN9__gnu_cxx12_Lock_policyE2EE, i32 0, i32 0), i8* bitcast ({ i8*, i8*, i8* }* @_ZTISt16_Sp_counted_baseILN9__gnu_cxx12_Lock_policyE2EE to i8*) }
@_ZTVSt16_Sp_counted_baseILN9__gnu_cxx12_Lock_policyE2EE = linkonce_odr unnamed_addr constant { [7 x i8*] } { [7 x i8*] [i8* null, i8* bitcast ({ i8*, i8*, i8* }* @_ZTISt16_Sp_counted_baseILN9__gnu_cxx12_Lock_policyE2EE to i8*), i8* bitcast (void (%"class.std::_Sp_counted_base"*)* @_ZNSt16_Sp_counted_baseILN9__gnu_cxx12_Lock_policyE2EED2Ev to i8*), i8* bitcast (void (%"class.std::_Sp_counted_base"*)* @_ZNSt16_Sp_counted_baseILN9__gnu_cxx12_Lock_policyE2EED0Ev to i8*), i8* bitcast (void ()* @__cxa_pure_virtual to i8*), i8* bitcast (void (%"class.std::_Sp_counted_base"*)* @_ZNSt16_Sp_counted_baseILN9__gnu_cxx12_Lock_policyE2EE10_M_destroyEv to i8*), i8* bitcast (void ()* @__cxa_pure_virtual to i8*)] }, align 8
@_ZZN6KalmarL13get_cpu_queueEvE9cpu_queue = internal global %"class.std::shared_ptr.6" zeroinitializer, align 8
@_ZGVZN6KalmarL13get_cpu_queueEvE9cpu_queue = internal global i64 0, align 8
@.str.1 = private unnamed_addr constant [4 x i32] [i32 99, i32 112, i32 117, i32 0], align 4
@.str.2 = private unnamed_addr constant [8 x i32] [i32 100, i32 101, i32 102, i32 97, i32 117, i32 108, i32 116, i32 0], align 4
@.str.3 = private unnamed_addr constant [1 x i32] zeroinitializer, align 4
@stderr = external global %struct._IO_FILE*, align 8
@.str.4 = private unnamed_addr constant [54 x i8] c"There is no device can be used to do the computation\0A\00", align 1
@_ZStL19piecewise_construct = internal constant %"struct.std::piecewise_construct_t" undef, align 1
@.str.5 = private unnamed_addr constant [23 x i8] c"Extent is less than 0.\00", align 1
@_ZTSN6Kalmar22invalid_compute_domainE = linkonce_odr constant [34 x i8] c"N6Kalmar22invalid_compute_domainE\00"
@_ZTSN6Kalmar17runtime_exceptionE = linkonce_odr constant [29 x i8] c"N6Kalmar17runtime_exceptionE\00"
@_ZTISt9exception = external constant i8*
@_ZTIN6Kalmar17runtime_exceptionE = linkonce_odr constant { i8*, i8*, i8* } { i8* bitcast (i8** getelementptr inbounds (i8*, i8** @_ZTVN10__cxxabiv120__si_class_type_infoE, i64 2) to i8*), i8* getelementptr inbounds ([29 x i8], [29 x i8]* @_ZTSN6Kalmar17runtime_exceptionE, i32 0, i32 0), i8* bitcast (i8** @_ZTISt9exception to i8*) }
@_ZTIN6Kalmar22invalid_compute_domainE = linkonce_odr constant { i8*, i8*, i8* } { i8* bitcast (i8** getelementptr inbounds (i8*, i8** @_ZTVN10__cxxabiv120__si_class_type_infoE, i64 2) to i8*), i8* getelementptr inbounds ([34 x i8], [34 x i8]* @_ZTSN6Kalmar22invalid_compute_domainE, i32 0, i32 0), i8* bitcast ({ i8*, i8*, i8* }* @_ZTIN6Kalmar17runtime_exceptionE to i8*) }
@.str.6 = private unnamed_addr constant [23 x i8] c"Extent size too large.\00", align 1
@_ZN6KalmarL33__errorMsg_UnsupportedAcceleratorE = internal global i8* getelementptr inbounds ([95 x i8], [95 x i8]* @.str.7, i32 0, i32 0), align 8
@_ZTVN6Kalmar22invalid_compute_domainE = linkonce_odr unnamed_addr constant { [5 x i8*] } { [5 x i8*] [i8* null, i8* bitcast ({ i8*, i8*, i8* }* @_ZTIN6Kalmar22invalid_compute_domainE to i8*), i8* bitcast (void (%"class.Kalmar::invalid_compute_domain"*)* @_ZN6Kalmar22invalid_compute_domainD2Ev to i8*), i8* bitcast (void (%"class.Kalmar::invalid_compute_domain"*)* @_ZN6Kalmar22invalid_compute_domainD0Ev to i8*), i8* bitcast (i8* (%"class.Kalmar::runtime_exception"*)* @_ZNK6Kalmar17runtime_exception4whatEv to i8*)] }, align 8
@_ZTVN6Kalmar17runtime_exceptionE = linkonce_odr unnamed_addr constant { [5 x i8*] } { [5 x i8*] [i8* null, i8* bitcast ({ i8*, i8*, i8* }* @_ZTIN6Kalmar17runtime_exceptionE to i8*), i8* bitcast (void (%"class.Kalmar::runtime_exception"*)* @_ZN6Kalmar17runtime_exceptionD2Ev to i8*), i8* bitcast (void (%"class.Kalmar::runtime_exception"*)* @_ZN6Kalmar17runtime_exceptionD0Ev to i8*), i8* bitcast (i8* (%"class.Kalmar::runtime_exception"*)* @_ZNK6Kalmar17runtime_exception4whatEv to i8*)] }, align 8
@_ZTVSt9exception = external unnamed_addr constant { [5 x i8*] }
@.str.7 = private unnamed_addr constant [95 x i8] c"concurrency::parallel_for_each is not supported on the selected accelerator \22CPU accelerator\22.\00", align 1
@.str.8 = private unnamed_addr constant [20 x i8] c"__cxxamp_trampoline\00", section "llvm.metadata"
@.str.9 = private unnamed_addr constant [11 x i8] c"share2.cpp\00", section "llvm.metadata"
@__cxxamp_trampoline.kernelname = private unnamed_addr constant [47 x i8] c"_ZZ4mainEN3$_019__cxxamp_trampolineEPiiiiiiiii\00"
@.str.10 = private unnamed_addr constant [25 x i8] c"__cxxamp_trampoline_name\00", section "llvm.metadata"
@_ZTVN6Kalmar23BufferArgumentsAppenderE = linkonce_odr unnamed_addr constant { [5 x i8*] } { [5 x i8*] [i8* null, i8* bitcast ({ i8*, i8*, i8* }* @_ZTIN6Kalmar23BufferArgumentsAppenderE to i8*), i8* bitcast (void (%"class.Kalmar::BufferArgumentsAppender"*, i64, i8*)* @_ZN6Kalmar23BufferArgumentsAppender6AppendEmPKv to i8*), i8* bitcast (void (%"class.Kalmar::BufferArgumentsAppender"*, i64, i8*)* @_ZN6Kalmar23BufferArgumentsAppender9AppendPtrEmPKv to i8*), i8* bitcast (void (%"class.Kalmar::BufferArgumentsAppender"*, %"struct.Kalmar::rw_info"*, i1, i1)* @_ZN6Kalmar23BufferArgumentsAppender12visit_bufferEPNS_7rw_infoEbb to i8*)] }, align 8
@_ZTSN6Kalmar23BufferArgumentsAppenderE = linkonce_odr constant [35 x i8] c"N6Kalmar23BufferArgumentsAppenderE\00"
@_ZTSN6Kalmar19FunctorBufferWalkerE = linkonce_odr constant [31 x i8] c"N6Kalmar19FunctorBufferWalkerE\00"
@_ZTIN6Kalmar19FunctorBufferWalkerE = linkonce_odr constant { i8*, i8* } { i8* bitcast (i8** getelementptr inbounds (i8*, i8** @_ZTVN10__cxxabiv117__class_type_infoE, i64 2) to i8*), i8* getelementptr inbounds ([31 x i8], [31 x i8]* @_ZTSN6Kalmar19FunctorBufferWalkerE, i32 0, i32 0) }
@_ZTIN6Kalmar23BufferArgumentsAppenderE = linkonce_odr constant { i8*, i8*, i8* } { i8* bitcast (i8** getelementptr inbounds (i8*, i8** @_ZTVN10__cxxabiv120__si_class_type_infoE, i64 2) to i8*), i8* getelementptr inbounds ([35 x i8], [35 x i8]* @_ZTSN6Kalmar23BufferArgumentsAppenderE, i32 0, i32 0), i8* bitcast ({ i8*, i8* }* @_ZTIN6Kalmar19FunctorBufferWalkerE to i8*) }
@_ZTVN6Kalmar19FunctorBufferWalkerE = linkonce_odr unnamed_addr constant { [5 x i8*] } { [5 x i8*] [i8* null, i8* bitcast ({ i8*, i8* }* @_ZTIN6Kalmar19FunctorBufferWalkerE to i8*), i8* bitcast (void (%"class.Kalmar::FunctorBufferWalker"*, i64, i8*)* @_ZN6Kalmar19FunctorBufferWalker6AppendEmPKv to i8*), i8* bitcast (void (%"class.Kalmar::FunctorBufferWalker"*, i64, i8*)* @_ZN6Kalmar19FunctorBufferWalker9AppendPtrEmPKv to i8*), i8* bitcast (void ()* @__cxa_pure_virtual to i8*)] }, align 8
@.str.11 = private unnamed_addr constant [10 x i8] c"serialize\00", section "llvm.metadata"
@.str.12 = private unnamed_addr constant [33 x i8] c"/opt/rocm/hcc-1.0/include/hc.hpp\00", section "llvm.metadata"
@.str.13 = private unnamed_addr constant [42 x i8] c"/opt/rocm/hcc-1.0/include/kalmar_buffer.h\00", section "llvm.metadata"
@.str.14 = private unnamed_addr constant [41 x i8] c"/opt/rocm/hcc-1.0/include/kalmar_index.h\00", section "llvm.metadata"
@llvm.global_ctors = appending global [1 x { i32, void ()*, i8* }] [{ i32, void ()*, i8* } { i32 65535, void ()* @_GLOBAL__sub_I_share2.cpp, i8* null }]
@llvm.global.annotations = appending global [9 x { i8*, i8*, i8*, i32 }] [{ i8*, i8*, i8*, i32 } { i8* bitcast (void (i32*, i32, i32, i32, i32, i32, i32, i32, i32)* @"_ZZ4mainEN3$_019__cxxamp_trampolineEPiiiiiiiii" to i8*), i8* getelementptr inbounds ([20 x i8], [20 x i8]* @.str.8, i32 0, i32 0), i8* getelementptr inbounds ([11 x i8], [11 x i8]* @.str.9, i32 0, i32 0), i32 13 }, { i8*, i8*, i8*, i32 } { i8* bitcast (i8* ()* @"_ZZ4mainEN3$_024__cxxamp_trampoline_nameEv" to i8*), i8* getelementptr inbounds ([25 x i8], [25 x i8]* @.str.10, i32 0, i32 0), i8* getelementptr inbounds ([11 x i8], [11 x i8]* @.str.9, i32 0, i32 0), i32 13 }, { i8*, i8*, i8*, i32 } { i8* bitcast (void (%class.anon*, %"class.Kalmar::Serialize"*)* @"_ZZ4mainENK3$_018__cxxamp_serializeERN6Kalmar9SerializeE" to i8*), i8* getelementptr inbounds ([10 x i8], [10 x i8]* @.str.11, i32 0, i32 0), i8* getelementptr inbounds ([11 x i8], [11 x i8]* @.str.9, i32 0, i32 0), i32 13 }, { i8*, i8*, i8*, i32 } { i8* bitcast (void (%"class.hc::array_view"*, %"class.Kalmar::Serialize"*)* @_ZNK2hc10array_viewIiLi1EE18__cxxamp_serializeERN6Kalmar9SerializeE to i8*), i8* getelementptr inbounds ([10 x i8], [10 x i8]* @.str.11, i32 0, i32 0), i8* getelementptr inbounds ([33 x i8], [33 x i8]* @.str.12, i32 0, i32 0), i32 5121 }, { i8*, i8*, i8*, i32 } { i8* bitcast (void (%"class.Kalmar::_data_host"*, %"class.Kalmar::Serialize"*)* @_ZNK6Kalmar10_data_hostIiE18__cxxamp_serializeERNS_9SerializeE to i8*), i8* getelementptr inbounds ([10 x i8], [10 x i8]* @.str.11, i32 0, i32 0), i8* getelementptr inbounds ([42 x i8], [42 x i8]* @.str.13, i32 0, i32 0), i32 102 }, { i8*, i8*, i8*, i32 } { i8* bitcast (void (%"class.hc::extent"*, %"class.Kalmar::Serialize"*)* @_ZNK2hc6extentILi1EE18__cxxamp_serializeERN6Kalmar9SerializeE to i8*), i8* getelementptr inbounds ([10 x i8], [10 x i8]* @.str.11, i32 0, i32 0), i8* getelementptr inbounds ([33 x i8], [33 x i8]* @.str.12, i32 0, i32 0), i32 1572 }, { i8*, i8*, i8*, i32 } { i8* bitcast (void (%"struct.Kalmar::index_impl"*, %"class.Kalmar::Serialize"*)* @_ZNK6Kalmar10index_implINS_9__indicesIJLi0EEEEE18__cxxamp_serializeERNS_9SerializeE to i8*), i8* getelementptr inbounds ([10 x i8], [10 x i8]* @.str.11, i32 0, i32 0), i8* getelementptr inbounds ([41 x i8], [41 x i8]* @.str.14, i32 0, i32 0), i32 75 }, { i8*, i8*, i8*, i32 } { i8* bitcast (void (%"class.Kalmar::__index_leaf"*, %"class.Kalmar::Serialize"*)* @_ZNK6Kalmar12__index_leafILi0EE18__cxxamp_serializeERNS_9SerializeE to i8*), i8* getelementptr inbounds ([10 x i8], [10 x i8]* @.str.11, i32 0, i32 0), i8* getelementptr inbounds ([41 x i8], [41 x i8]* @.str.14, i32 0, i32 0), i32 38 }, { i8*, i8*, i8*, i32 } { i8* bitcast (void (%"class.Kalmar::index"*, %"class.Kalmar::Serialize"*)* @_ZNK6Kalmar5indexILi1EE18__cxxamp_serializeERNS_9SerializeE to i8*), i8* getelementptr inbounds ([10 x i8], [10 x i8]* @.str.11, i32 0, i32 0), i8* getelementptr inbounds ([41 x i8], [41 x i8]* @.str.14, i32 0, i32 0), i32 469 }], section "llvm.metadata"
@llvm.used = appending global [1 x i8*] [i8* bitcast (void (%"class.hc::completion_future"*, %"class.hc::accelerator_view"*, %"class.hc::extent"*, %class.anon*)* @"_ZN2hc17parallel_for_eachIZ4mainE3$_0EENS_17completion_futureERKNS_16accelerator_viewERKNS_6extentILi1EEERKT_" to i8*)], section "llvm.metadata"

; Function Attrs: noinline uwtable
define internal void @__cxx_global_var_init() #0 section ".text.startup" {
  call void @_ZNSt8ios_base4InitC1Ev(%"class.std::ios_base::Init"* @_ZStL8__ioinit)
  %1 = call i32 @__cxa_atexit(void (i8*)* bitcast (void (%"class.std::ios_base::Init"*)* @_ZNSt8ios_base4InitD1Ev to void (i8*)*), i8* getelementptr inbounds (%"class.std::ios_base::Init", %"class.std::ios_base::Init"* @_ZStL8__ioinit, i32 0, i32 0), i8* @__dso_handle) #3
  ret void
}

declare void @_ZNSt8ios_base4InitC1Ev(%"class.std::ios_base::Init"*) unnamed_addr #1

; Function Attrs: nounwind
declare void @_ZNSt8ios_base4InitD1Ev(%"class.std::ios_base::Init"*) unnamed_addr #2

; Function Attrs: nounwind
declare i32 @__cxa_atexit(void (i8*)*, i8*, i8*) #3

; Function Attrs: alwaysinline uwtable
define weak_odr void @_ZN6Kalmar5indexILi1EEC2Ev(%"class.Kalmar::index"* %this) unnamed_addr #4 align 2 {
  %this.addr.i.i = alloca %"class.Kalmar::__index_leaf"*, align 8
  %__t.addr.i.i = alloca i32, align 4
  %this.addr.i = alloca %"struct.Kalmar::index_impl"*, align 8
  %this.addr = alloca %"class.Kalmar::index"*, align 8
  store %"class.Kalmar::index"* %this, %"class.Kalmar::index"** %this.addr, align 8
  %this1 = load %"class.Kalmar::index"*, %"class.Kalmar::index"** %this.addr, align 8
  %base_ = getelementptr inbounds %"class.Kalmar::index", %"class.Kalmar::index"* %this1, i32 0, i32 0
  store %"struct.Kalmar::index_impl"* %base_, %"struct.Kalmar::index_impl"** %this.addr.i, align 8
  %this1.i = load %"struct.Kalmar::index_impl"*, %"struct.Kalmar::index_impl"** %this.addr.i, align 8
  %1 = bitcast %"struct.Kalmar::index_impl"* %this1.i to %"class.Kalmar::__index_leaf"*
  store %"class.Kalmar::__index_leaf"* %1, %"class.Kalmar::__index_leaf"** %this.addr.i.i, align 8
  store i32 0, i32* %__t.addr.i.i, align 4
  %this1.i.i = load %"class.Kalmar::__index_leaf"*, %"class.Kalmar::__index_leaf"** %this.addr.i.i, align 8
  %__idx.i.i = getelementptr inbounds %"class.Kalmar::__index_leaf", %"class.Kalmar::__index_leaf"* %this1.i.i, i32 0, i32 0
  %2 = load i32, i32* %__t.addr.i.i, align 4
  store i32 %2, i32* %__idx.i.i, align 4
  ret void
}

; Function Attrs: alwaysinline uwtable
define weak_odr void @_ZN6Kalmar5indexILi1EEC1Ev(%"class.Kalmar::index"* %this) unnamed_addr #4 align 2 {
  %this.addr.i.i.i = alloca %"class.Kalmar::__index_leaf"*, align 8
  %__t.addr.i.i.i = alloca i32, align 4
  %this.addr.i.i = alloca %"struct.Kalmar::index_impl"*, align 8
  %this.addr.i = alloca %"class.Kalmar::index"*, align 8
  %this.addr = alloca %"class.Kalmar::index"*, align 8
  store %"class.Kalmar::index"* %this, %"class.Kalmar::index"** %this.addr, align 8
  %this1 = load %"class.Kalmar::index"*, %"class.Kalmar::index"** %this.addr, align 8
  store %"class.Kalmar::index"* %this1, %"class.Kalmar::index"** %this.addr.i, align 8
  %this1.i = load %"class.Kalmar::index"*, %"class.Kalmar::index"** %this.addr.i, align 8
  %base_.i = getelementptr inbounds %"class.Kalmar::index", %"class.Kalmar::index"* %this1.i, i32 0, i32 0
  store %"struct.Kalmar::index_impl"* %base_.i, %"struct.Kalmar::index_impl"** %this.addr.i.i, align 8
  %this1.i.i = load %"struct.Kalmar::index_impl"*, %"struct.Kalmar::index_impl"** %this.addr.i.i, align 8
  %1 = bitcast %"struct.Kalmar::index_impl"* %this1.i.i to %"class.Kalmar::__index_leaf"*
  store %"class.Kalmar::__index_leaf"* %1, %"class.Kalmar::__index_leaf"** %this.addr.i.i.i, align 8
  store i32 0, i32* %__t.addr.i.i.i, align 4
  %this1.i.i.i = load %"class.Kalmar::__index_leaf"*, %"class.Kalmar::__index_leaf"** %this.addr.i.i.i, align 8
  %__idx.i.i.i = getelementptr inbounds %"class.Kalmar::__index_leaf", %"class.Kalmar::__index_leaf"* %this1.i.i.i, i32 0, i32 0
  %2 = load i32, i32* %__t.addr.i.i.i, align 4
  store i32 %2, i32* %__idx.i.i.i, align 4
  ret void
}

; Function Attrs: alwaysinline uwtable
define weak_odr void @_ZN6Kalmar5indexILi1EEC2ERKS1_(%"class.Kalmar::index"* %this, %"class.Kalmar::index"* dereferenceable(8) %other) unnamed_addr #4 align 2 {
  %this.addr.i.i.i = alloca %"class.Kalmar::__index_leaf"*, align 8
  %__t.addr.i.i.i = alloca i32, align 4
  %this.addr.i2.i = alloca %"struct.Kalmar::index_impl"*, align 8
  %component.addr.i.i = alloca i32, align 4
  %this.addr.i.i = alloca %"class.Kalmar::__index_leaf"*, align 8
  %this.addr.i = alloca %"struct.Kalmar::index_impl"*, align 8
  %other.addr.i = alloca %"struct.Kalmar::index_impl"*, align 8
  %this.addr = alloca %"class.Kalmar::index"*, align 8
  %other.addr = alloca %"class.Kalmar::index"*, align 8
  store %"class.Kalmar::index"* %this, %"class.Kalmar::index"** %this.addr, align 8
  store %"class.Kalmar::index"* %other, %"class.Kalmar::index"** %other.addr, align 8
  %this1 = load %"class.Kalmar::index"*, %"class.Kalmar::index"** %this.addr, align 8
  %base_ = getelementptr inbounds %"class.Kalmar::index", %"class.Kalmar::index"* %this1, i32 0, i32 0
  %1 = load %"class.Kalmar::index"*, %"class.Kalmar::index"** %other.addr, align 8
  %base_2 = getelementptr inbounds %"class.Kalmar::index", %"class.Kalmar::index"* %1, i32 0, i32 0
  store %"struct.Kalmar::index_impl"* %base_, %"struct.Kalmar::index_impl"** %this.addr.i, align 8
  store %"struct.Kalmar::index_impl"* %base_2, %"struct.Kalmar::index_impl"** %other.addr.i, align 8
  %this1.i = load %"struct.Kalmar::index_impl"*, %"struct.Kalmar::index_impl"** %this.addr.i, align 8
  %2 = load %"struct.Kalmar::index_impl"*, %"struct.Kalmar::index_impl"** %other.addr.i, align 8
  %3 = bitcast %"struct.Kalmar::index_impl"* %2 to %"class.Kalmar::__index_leaf"*
  store %"class.Kalmar::__index_leaf"* %3, %"class.Kalmar::__index_leaf"** %this.addr.i.i, align 8
  %this1.i.i = load %"class.Kalmar::__index_leaf"*, %"class.Kalmar::__index_leaf"** %this.addr.i.i, align 8
  %__idx.i.i = getelementptr inbounds %"class.Kalmar::__index_leaf", %"class.Kalmar::__index_leaf"* %this1.i.i, i32 0, i32 0
  %4 = load i32, i32* %__idx.i.i, align 4
  store %"struct.Kalmar::index_impl"* %this1.i, %"struct.Kalmar::index_impl"** %this.addr.i2.i, align 8
  store i32 %4, i32* %component.addr.i.i, align 4
  %this1.i3.i = load %"struct.Kalmar::index_impl"*, %"struct.Kalmar::index_impl"** %this.addr.i2.i, align 8
  %5 = bitcast %"struct.Kalmar::index_impl"* %this1.i3.i to %"class.Kalmar::__index_leaf"*
  %6 = load i32, i32* %component.addr.i.i, align 4
  store %"class.Kalmar::__index_leaf"* %5, %"class.Kalmar::__index_leaf"** %this.addr.i.i.i, align 8
  store i32 %6, i32* %__t.addr.i.i.i, align 4
  %this1.i.i.i = load %"class.Kalmar::__index_leaf"*, %"class.Kalmar::__index_leaf"** %this.addr.i.i.i, align 8
  %__idx.i.i.i = getelementptr inbounds %"class.Kalmar::__index_leaf", %"class.Kalmar::__index_leaf"* %this1.i.i.i, i32 0, i32 0
  %7 = load i32, i32* %__t.addr.i.i.i, align 4
  store i32 %7, i32* %__idx.i.i.i, align 4
  ret void
}

; Function Attrs: alwaysinline uwtable
define weak_odr void @_ZN6Kalmar5indexILi1EEC1ERKS1_(%"class.Kalmar::index"* %this, %"class.Kalmar::index"* dereferenceable(8) %other) unnamed_addr #4 align 2 {
  %this.addr.i.i.i.i = alloca %"class.Kalmar::__index_leaf"*, align 8
  %__t.addr.i.i.i.i = alloca i32, align 4
  %this.addr.i2.i.i = alloca %"struct.Kalmar::index_impl"*, align 8
  %component.addr.i.i.i = alloca i32, align 4
  %this.addr.i.i.i = alloca %"class.Kalmar::__index_leaf"*, align 8
  %this.addr.i.i = alloca %"struct.Kalmar::index_impl"*, align 8
  %other.addr.i.i = alloca %"struct.Kalmar::index_impl"*, align 8
  %this.addr.i = alloca %"class.Kalmar::index"*, align 8
  %other.addr.i = alloca %"class.Kalmar::index"*, align 8
  %this.addr = alloca %"class.Kalmar::index"*, align 8
  %other.addr = alloca %"class.Kalmar::index"*, align 8
  store %"class.Kalmar::index"* %this, %"class.Kalmar::index"** %this.addr, align 8
  store %"class.Kalmar::index"* %other, %"class.Kalmar::index"** %other.addr, align 8
  %this1 = load %"class.Kalmar::index"*, %"class.Kalmar::index"** %this.addr, align 8
  %1 = load %"class.Kalmar::index"*, %"class.Kalmar::index"** %other.addr, align 8
  store %"class.Kalmar::index"* %this1, %"class.Kalmar::index"** %this.addr.i, align 8
  store %"class.Kalmar::index"* %1, %"class.Kalmar::index"** %other.addr.i, align 8
  %this1.i = load %"class.Kalmar::index"*, %"class.Kalmar::index"** %this.addr.i, align 8
  %base_.i = getelementptr inbounds %"class.Kalmar::index", %"class.Kalmar::index"* %this1.i, i32 0, i32 0
  %2 = load %"class.Kalmar::index"*, %"class.Kalmar::index"** %other.addr.i, align 8
  %base_2.i = getelementptr inbounds %"class.Kalmar::index", %"class.Kalmar::index"* %2, i32 0, i32 0
  store %"struct.Kalmar::index_impl"* %base_.i, %"struct.Kalmar::index_impl"** %this.addr.i.i, align 8
  store %"struct.Kalmar::index_impl"* %base_2.i, %"struct.Kalmar::index_impl"** %other.addr.i.i, align 8
  %this1.i.i = load %"struct.Kalmar::index_impl"*, %"struct.Kalmar::index_impl"** %this.addr.i.i, align 8
  %3 = load %"struct.Kalmar::index_impl"*, %"struct.Kalmar::index_impl"** %other.addr.i.i, align 8
  %4 = bitcast %"struct.Kalmar::index_impl"* %3 to %"class.Kalmar::__index_leaf"*
  store %"class.Kalmar::__index_leaf"* %4, %"class.Kalmar::__index_leaf"** %this.addr.i.i.i, align 8
  %this1.i.i.i = load %"class.Kalmar::__index_leaf"*, %"class.Kalmar::__index_leaf"** %this.addr.i.i.i, align 8
  %__idx.i.i.i = getelementptr inbounds %"class.Kalmar::__index_leaf", %"class.Kalmar::__index_leaf"* %this1.i.i.i, i32 0, i32 0
  %5 = load i32, i32* %__idx.i.i.i, align 4
  store %"struct.Kalmar::index_impl"* %this1.i.i, %"struct.Kalmar::index_impl"** %this.addr.i2.i.i, align 8
  store i32 %5, i32* %component.addr.i.i.i, align 4
  %this1.i3.i.i = load %"struct.Kalmar::index_impl"*, %"struct.Kalmar::index_impl"** %this.addr.i2.i.i, align 8
  %6 = bitcast %"struct.Kalmar::index_impl"* %this1.i3.i.i to %"class.Kalmar::__index_leaf"*
  %7 = load i32, i32* %component.addr.i.i.i, align 4
  store %"class.Kalmar::__index_leaf"* %6, %"class.Kalmar::__index_leaf"** %this.addr.i.i.i.i, align 8
  store i32 %7, i32* %__t.addr.i.i.i.i, align 4
  %this1.i.i.i.i = load %"class.Kalmar::__index_leaf"*, %"class.Kalmar::__index_leaf"** %this.addr.i.i.i.i, align 8
  %__idx.i.i.i.i = getelementptr inbounds %"class.Kalmar::__index_leaf", %"class.Kalmar::__index_leaf"* %this1.i.i.i.i, i32 0, i32 0
  %8 = load i32, i32* %__t.addr.i.i.i.i, align 4
  store i32 %8, i32* %__idx.i.i.i.i, align 4
  ret void
}

; Function Attrs: alwaysinline uwtable
define weak_odr void @_ZN6Kalmar5indexILi1EEC2Ei(%"class.Kalmar::index"* %this, i32 %i0) unnamed_addr #4 align 2 {
  %this.addr.i.i = alloca %"class.Kalmar::__index_leaf"*, align 8
  %__t.addr.i.i = alloca i32, align 4
  %this.addr.i = alloca %"struct.Kalmar::index_impl"*, align 8
  %component.addr.i = alloca i32, align 4
  %this.addr = alloca %"class.Kalmar::index"*, align 8
  %i0.addr = alloca i32, align 4
  store %"class.Kalmar::index"* %this, %"class.Kalmar::index"** %this.addr, align 8
  store i32 %i0, i32* %i0.addr, align 4
  %this1 = load %"class.Kalmar::index"*, %"class.Kalmar::index"** %this.addr, align 8
  %base_ = getelementptr inbounds %"class.Kalmar::index", %"class.Kalmar::index"* %this1, i32 0, i32 0
  %1 = load i32, i32* %i0.addr, align 4
  store %"struct.Kalmar::index_impl"* %base_, %"struct.Kalmar::index_impl"** %this.addr.i, align 8
  store i32 %1, i32* %component.addr.i, align 4
  %this1.i = load %"struct.Kalmar::index_impl"*, %"struct.Kalmar::index_impl"** %this.addr.i, align 8
  %2 = bitcast %"struct.Kalmar::index_impl"* %this1.i to %"class.Kalmar::__index_leaf"*
  %3 = load i32, i32* %component.addr.i, align 4
  store %"class.Kalmar::__index_leaf"* %2, %"class.Kalmar::__index_leaf"** %this.addr.i.i, align 8
  store i32 %3, i32* %__t.addr.i.i, align 4
  %this1.i.i = load %"class.Kalmar::__index_leaf"*, %"class.Kalmar::__index_leaf"** %this.addr.i.i, align 8
  %__idx.i.i = getelementptr inbounds %"class.Kalmar::__index_leaf", %"class.Kalmar::__index_leaf"* %this1.i.i, i32 0, i32 0
  %4 = load i32, i32* %__t.addr.i.i, align 4
  store i32 %4, i32* %__idx.i.i, align 4
  ret void
}

; Function Attrs: alwaysinline uwtable
define weak_odr void @_ZN6Kalmar5indexILi1EEC1Ei(%"class.Kalmar::index"* %this, i32 %i0) unnamed_addr #4 align 2 {
  %this.addr.i.i.i = alloca %"class.Kalmar::__index_leaf"*, align 8
  %__t.addr.i.i.i = alloca i32, align 4
  %this.addr.i.i = alloca %"struct.Kalmar::index_impl"*, align 8
  %component.addr.i.i = alloca i32, align 4
  %this.addr.i = alloca %"class.Kalmar::index"*, align 8
  %i0.addr.i = alloca i32, align 4
  %this.addr = alloca %"class.Kalmar::index"*, align 8
  %i0.addr = alloca i32, align 4
  store %"class.Kalmar::index"* %this, %"class.Kalmar::index"** %this.addr, align 8
  store i32 %i0, i32* %i0.addr, align 4
  %this1 = load %"class.Kalmar::index"*, %"class.Kalmar::index"** %this.addr, align 8
  %1 = load i32, i32* %i0.addr, align 4
  store %"class.Kalmar::index"* %this1, %"class.Kalmar::index"** %this.addr.i, align 8
  store i32 %1, i32* %i0.addr.i, align 4
  %this1.i = load %"class.Kalmar::index"*, %"class.Kalmar::index"** %this.addr.i, align 8
  %base_.i = getelementptr inbounds %"class.Kalmar::index", %"class.Kalmar::index"* %this1.i, i32 0, i32 0
  %2 = load i32, i32* %i0.addr.i, align 4
  store %"struct.Kalmar::index_impl"* %base_.i, %"struct.Kalmar::index_impl"** %this.addr.i.i, align 8
  store i32 %2, i32* %component.addr.i.i, align 4
  %this1.i.i = load %"struct.Kalmar::index_impl"*, %"struct.Kalmar::index_impl"** %this.addr.i.i, align 8
  %3 = bitcast %"struct.Kalmar::index_impl"* %this1.i.i to %"class.Kalmar::__index_leaf"*
  %4 = load i32, i32* %component.addr.i.i, align 4
  store %"class.Kalmar::__index_leaf"* %3, %"class.Kalmar::__index_leaf"** %this.addr.i.i.i, align 8
  store i32 %4, i32* %__t.addr.i.i.i, align 4
  %this1.i.i.i = load %"class.Kalmar::__index_leaf"*, %"class.Kalmar::__index_leaf"** %this.addr.i.i.i, align 8
  %__idx.i.i.i = getelementptr inbounds %"class.Kalmar::__index_leaf", %"class.Kalmar::__index_leaf"* %this1.i.i.i, i32 0, i32 0
  %5 = load i32, i32* %__t.addr.i.i.i, align 4
  store i32 %5, i32* %__idx.i.i.i, align 4
  ret void
}

; Function Attrs: alwaysinline uwtable
define weak_odr void @_ZN6Kalmar5indexILi1EEC2EPKi(%"class.Kalmar::index"* %this, i32* %components) unnamed_addr #4 align 2 {
  %this.addr.i.i = alloca %"class.Kalmar::__index_leaf"*, align 8
  %__t.addr.i.i = alloca i32, align 4
  %this.addr.i = alloca %"struct.Kalmar::index_impl"*, align 8
  %components.addr.i = alloca i32*, align 8
  %this.addr = alloca %"class.Kalmar::index"*, align 8
  %components.addr = alloca i32*, align 8
  store %"class.Kalmar::index"* %this, %"class.Kalmar::index"** %this.addr, align 8
  store i32* %components, i32** %components.addr, align 8
  %this1 = load %"class.Kalmar::index"*, %"class.Kalmar::index"** %this.addr, align 8
  %base_ = getelementptr inbounds %"class.Kalmar::index", %"class.Kalmar::index"* %this1, i32 0, i32 0
  %1 = load i32*, i32** %components.addr, align 8
  store %"struct.Kalmar::index_impl"* %base_, %"struct.Kalmar::index_impl"** %this.addr.i, align 8
  store i32* %1, i32** %components.addr.i, align 8
  %this1.i = load %"struct.Kalmar::index_impl"*, %"struct.Kalmar::index_impl"** %this.addr.i, align 8
  %2 = bitcast %"struct.Kalmar::index_impl"* %this1.i to %"class.Kalmar::__index_leaf"*
  %3 = load i32*, i32** %components.addr.i, align 8
  %4 = load i32, i32* %3, align 4
  store %"class.Kalmar::__index_leaf"* %2, %"class.Kalmar::__index_leaf"** %this.addr.i.i, align 8
  store i32 %4, i32* %__t.addr.i.i, align 4
  %this1.i.i = load %"class.Kalmar::__index_leaf"*, %"class.Kalmar::__index_leaf"** %this.addr.i.i, align 8
  %__idx.i.i = getelementptr inbounds %"class.Kalmar::__index_leaf", %"class.Kalmar::__index_leaf"* %this1.i.i, i32 0, i32 0
  %5 = load i32, i32* %__t.addr.i.i, align 4
  store i32 %5, i32* %__idx.i.i, align 4
  ret void
}

; Function Attrs: alwaysinline uwtable
define weak_odr void @_ZN6Kalmar5indexILi1EEC1EPKi(%"class.Kalmar::index"* %this, i32* %components) unnamed_addr #4 align 2 {
  %this.addr.i.i.i = alloca %"class.Kalmar::__index_leaf"*, align 8
  %__t.addr.i.i.i = alloca i32, align 4
  %this.addr.i.i = alloca %"struct.Kalmar::index_impl"*, align 8
  %components.addr.i.i = alloca i32*, align 8
  %this.addr.i = alloca %"class.Kalmar::index"*, align 8
  %components.addr.i = alloca i32*, align 8
  %this.addr = alloca %"class.Kalmar::index"*, align 8
  %components.addr = alloca i32*, align 8
  store %"class.Kalmar::index"* %this, %"class.Kalmar::index"** %this.addr, align 8
  store i32* %components, i32** %components.addr, align 8
  %this1 = load %"class.Kalmar::index"*, %"class.Kalmar::index"** %this.addr, align 8
  %1 = load i32*, i32** %components.addr, align 8
  store %"class.Kalmar::index"* %this1, %"class.Kalmar::index"** %this.addr.i, align 8
  store i32* %1, i32** %components.addr.i, align 8
  %this1.i = load %"class.Kalmar::index"*, %"class.Kalmar::index"** %this.addr.i, align 8
  %base_.i = getelementptr inbounds %"class.Kalmar::index", %"class.Kalmar::index"* %this1.i, i32 0, i32 0
  %2 = load i32*, i32** %components.addr.i, align 8
  store %"struct.Kalmar::index_impl"* %base_.i, %"struct.Kalmar::index_impl"** %this.addr.i.i, align 8
  store i32* %2, i32** %components.addr.i.i, align 8
  %this1.i.i = load %"struct.Kalmar::index_impl"*, %"struct.Kalmar::index_impl"** %this.addr.i.i, align 8
  %3 = bitcast %"struct.Kalmar::index_impl"* %this1.i.i to %"class.Kalmar::__index_leaf"*
  %4 = load i32*, i32** %components.addr.i.i, align 8
  %5 = load i32, i32* %4, align 4
  store %"class.Kalmar::__index_leaf"* %3, %"class.Kalmar::__index_leaf"** %this.addr.i.i.i, align 8
  store i32 %5, i32* %__t.addr.i.i.i, align 4
  %this1.i.i.i = load %"class.Kalmar::__index_leaf"*, %"class.Kalmar::__index_leaf"** %this.addr.i.i.i, align 8
  %__idx.i.i.i = getelementptr inbounds %"class.Kalmar::__index_leaf", %"class.Kalmar::__index_leaf"* %this1.i.i.i, i32 0, i32 0
  %6 = load i32, i32* %__t.addr.i.i.i, align 4
  store i32 %6, i32* %__idx.i.i.i, align 4
  ret void
}

; Function Attrs: alwaysinline uwtable
define weak_odr void @_ZN6Kalmar5indexILi1EEC2EPi(%"class.Kalmar::index"* %this, i32* %components) unnamed_addr #4 align 2 {
  %this.addr.i.i = alloca %"class.Kalmar::__index_leaf"*, align 8
  %__t.addr.i.i = alloca i32, align 4
  %this.addr.i = alloca %"struct.Kalmar::index_impl"*, align 8
  %components.addr.i = alloca i32*, align 8
  %this.addr = alloca %"class.Kalmar::index"*, align 8
  %components.addr = alloca i32*, align 8
  store %"class.Kalmar::index"* %this, %"class.Kalmar::index"** %this.addr, align 8
  store i32* %components, i32** %components.addr, align 8
  %this1 = load %"class.Kalmar::index"*, %"class.Kalmar::index"** %this.addr, align 8
  %base_ = getelementptr inbounds %"class.Kalmar::index", %"class.Kalmar::index"* %this1, i32 0, i32 0
  %1 = load i32*, i32** %components.addr, align 8
  store %"struct.Kalmar::index_impl"* %base_, %"struct.Kalmar::index_impl"** %this.addr.i, align 8
  store i32* %1, i32** %components.addr.i, align 8
  %this1.i = load %"struct.Kalmar::index_impl"*, %"struct.Kalmar::index_impl"** %this.addr.i, align 8
  %2 = bitcast %"struct.Kalmar::index_impl"* %this1.i to %"class.Kalmar::__index_leaf"*
  %3 = load i32*, i32** %components.addr.i, align 8
  %4 = load i32, i32* %3, align 4
  store %"class.Kalmar::__index_leaf"* %2, %"class.Kalmar::__index_leaf"** %this.addr.i.i, align 8
  store i32 %4, i32* %__t.addr.i.i, align 4
  %this1.i.i = load %"class.Kalmar::__index_leaf"*, %"class.Kalmar::__index_leaf"** %this.addr.i.i, align 8
  %__idx.i.i = getelementptr inbounds %"class.Kalmar::__index_leaf", %"class.Kalmar::__index_leaf"* %this1.i.i, i32 0, i32 0
  %5 = load i32, i32* %__t.addr.i.i, align 4
  store i32 %5, i32* %__idx.i.i, align 4
  ret void
}

; Function Attrs: alwaysinline uwtable
define weak_odr void @_ZN6Kalmar5indexILi1EEC1EPi(%"class.Kalmar::index"* %this, i32* %components) unnamed_addr #4 align 2 {
  %this.addr.i.i.i = alloca %"class.Kalmar::__index_leaf"*, align 8
  %__t.addr.i.i.i = alloca i32, align 4
  %this.addr.i.i = alloca %"struct.Kalmar::index_impl"*, align 8
  %components.addr.i.i = alloca i32*, align 8
  %this.addr.i = alloca %"class.Kalmar::index"*, align 8
  %components.addr.i = alloca i32*, align 8
  %this.addr = alloca %"class.Kalmar::index"*, align 8
  %components.addr = alloca i32*, align 8
  store %"class.Kalmar::index"* %this, %"class.Kalmar::index"** %this.addr, align 8
  store i32* %components, i32** %components.addr, align 8
  %this1 = load %"class.Kalmar::index"*, %"class.Kalmar::index"** %this.addr, align 8
  %1 = load i32*, i32** %components.addr, align 8
  store %"class.Kalmar::index"* %this1, %"class.Kalmar::index"** %this.addr.i, align 8
  store i32* %1, i32** %components.addr.i, align 8
  %this1.i = load %"class.Kalmar::index"*, %"class.Kalmar::index"** %this.addr.i, align 8
  %base_.i = getelementptr inbounds %"class.Kalmar::index", %"class.Kalmar::index"* %this1.i, i32 0, i32 0
  %2 = load i32*, i32** %components.addr.i, align 8
  store %"struct.Kalmar::index_impl"* %base_.i, %"struct.Kalmar::index_impl"** %this.addr.i.i, align 8
  store i32* %2, i32** %components.addr.i.i, align 8
  %this1.i.i = load %"struct.Kalmar::index_impl"*, %"struct.Kalmar::index_impl"** %this.addr.i.i, align 8
  %3 = bitcast %"struct.Kalmar::index_impl"* %this1.i.i to %"class.Kalmar::__index_leaf"*
  %4 = load i32*, i32** %components.addr.i.i, align 8
  %5 = load i32, i32* %4, align 4
  store %"class.Kalmar::__index_leaf"* %3, %"class.Kalmar::__index_leaf"** %this.addr.i.i.i, align 8
  store i32 %5, i32* %__t.addr.i.i.i, align 4
  %this1.i.i.i = load %"class.Kalmar::__index_leaf"*, %"class.Kalmar::__index_leaf"** %this.addr.i.i.i, align 8
  %__idx.i.i.i = getelementptr inbounds %"class.Kalmar::__index_leaf", %"class.Kalmar::__index_leaf"* %this1.i.i.i, i32 0, i32 0
  %6 = load i32, i32* %__t.addr.i.i.i, align 4
  store i32 %6, i32* %__idx.i.i.i, align 4
  ret void
}

; Function Attrs: alwaysinline uwtable
define weak_odr dereferenceable(8) %"class.Kalmar::index"* @_ZN6Kalmar5indexILi1EEaSERKS1_(%"class.Kalmar::index"* %this, %"class.Kalmar::index"* dereferenceable(8) %other) #4 align 2 {
  %this.addr.i5.i = alloca %"class.Kalmar::__index_leaf"*, align 8
  %__t.addr.i.i = alloca i32, align 4
  %1 = alloca %"class.Kalmar::__index_leaf", align 4
  %this.addr.i3.i = alloca %"struct.Kalmar::index_impl"*, align 8
  %this.addr.i.i = alloca %"class.Kalmar::__index_leaf"*, align 8
  %this.addr.i = alloca %"struct.Kalmar::index_impl"*, align 8
  %__t.addr.i = alloca %"struct.Kalmar::index_impl"*, align 8
  %agg.tmp.i = alloca %"class.Kalmar::__index_leaf", align 4
  %this.addr = alloca %"class.Kalmar::index"*, align 8
  %other.addr = alloca %"class.Kalmar::index"*, align 8
  store %"class.Kalmar::index"* %this, %"class.Kalmar::index"** %this.addr, align 8
  store %"class.Kalmar::index"* %other, %"class.Kalmar::index"** %other.addr, align 8
  %this1 = load %"class.Kalmar::index"*, %"class.Kalmar::index"** %this.addr, align 8
  %base_ = getelementptr inbounds %"class.Kalmar::index", %"class.Kalmar::index"* %this1, i32 0, i32 0
  %2 = load %"class.Kalmar::index"*, %"class.Kalmar::index"** %other.addr, align 8
  %base_2 = getelementptr inbounds %"class.Kalmar::index", %"class.Kalmar::index"* %2, i32 0, i32 0
  store %"struct.Kalmar::index_impl"* %base_, %"struct.Kalmar::index_impl"** %this.addr.i, align 8
  store %"struct.Kalmar::index_impl"* %base_2, %"struct.Kalmar::index_impl"** %__t.addr.i, align 8
  %this1.i = load %"struct.Kalmar::index_impl"*, %"struct.Kalmar::index_impl"** %this.addr.i, align 8
  %3 = bitcast %"struct.Kalmar::index_impl"* %this1.i to %"class.Kalmar::__index_leaf"*
  %4 = load %"struct.Kalmar::index_impl"*, %"struct.Kalmar::index_impl"** %__t.addr.i, align 8
  %5 = bitcast %"struct.Kalmar::index_impl"* %4 to %"class.Kalmar::__index_leaf"*
  store %"class.Kalmar::__index_leaf"* %5, %"class.Kalmar::__index_leaf"** %this.addr.i.i, align 8
  %this1.i.i = load %"class.Kalmar::__index_leaf"*, %"class.Kalmar::__index_leaf"** %this.addr.i.i, align 8
  %__idx.i.i = getelementptr inbounds %"class.Kalmar::__index_leaf", %"class.Kalmar::__index_leaf"* %this1.i.i, i32 0, i32 0
  %6 = load i32, i32* %__idx.i.i, align 4
  store %"class.Kalmar::__index_leaf"* %3, %"class.Kalmar::__index_leaf"** %this.addr.i5.i, align 8
  store i32 %6, i32* %__t.addr.i.i, align 4
  %this1.i6.i = load %"class.Kalmar::__index_leaf"*, %"class.Kalmar::__index_leaf"** %this.addr.i5.i, align 8
  %7 = load i32, i32* %__t.addr.i.i, align 4
  %__idx.i7.i = getelementptr inbounds %"class.Kalmar::__index_leaf", %"class.Kalmar::__index_leaf"* %this1.i6.i, i32 0, i32 0
  store i32 %7, i32* %__idx.i7.i, align 4
  %8 = bitcast %"class.Kalmar::__index_leaf"* %agg.tmp.i to i8*
  %9 = bitcast %"class.Kalmar::__index_leaf"* %this1.i6.i to i8*
  call void @llvm.memcpy.p0i8.p0i8.i64(i8* %8, i8* %9, i64 8, i32 4, i1 false)
  %10 = bitcast %"class.Kalmar::__index_leaf"* %agg.tmp.i to i64*
  %11 = load i64, i64* %10, align 4
  %12 = bitcast %"class.Kalmar::__index_leaf"* %1 to i64*
  store i64 %11, i64* %12, align 4
  store %"struct.Kalmar::index_impl"* %this1.i, %"struct.Kalmar::index_impl"** %this.addr.i3.i, align 8
  %this1.i4.i = load %"struct.Kalmar::index_impl"*, %"struct.Kalmar::index_impl"** %this.addr.i3.i, align 8
  ret %"class.Kalmar::index"* %this1
}

; Function Attrs: alwaysinline uwtable
define weak_odr i32 @_ZNK6Kalmar5indexILi1EEixEj(%"class.Kalmar::index"* %this, i32 %c) #4 align 2 {
  %this.addr.i.i = alloca %"class.Kalmar::__index_leaf"*, align 8
  %this.addr.i = alloca %"struct.Kalmar::index_impl"*, align 8
  %c.addr.i = alloca i32, align 4
  %this.addr = alloca %"class.Kalmar::index"*, align 8
  %c.addr = alloca i32, align 4
  store %"class.Kalmar::index"* %this, %"class.Kalmar::index"** %this.addr, align 8
  store i32 %c, i32* %c.addr, align 4
  %this1 = load %"class.Kalmar::index"*, %"class.Kalmar::index"** %this.addr, align 8
  %base_ = getelementptr inbounds %"class.Kalmar::index", %"class.Kalmar::index"* %this1, i32 0, i32 0
  %1 = load i32, i32* %c.addr, align 4
  store %"struct.Kalmar::index_impl"* %base_, %"struct.Kalmar::index_impl"** %this.addr.i, align 8
  store i32 %1, i32* %c.addr.i, align 4
  %this1.i = load %"struct.Kalmar::index_impl"*, %"struct.Kalmar::index_impl"** %this.addr.i, align 8
  %2 = bitcast %"struct.Kalmar::index_impl"* %this1.i to %"class.Kalmar::__index_leaf"*
  %3 = load i32, i32* %c.addr.i, align 4
  %idx.ext.i = zext i32 %3 to i64
  %add.ptr.i = getelementptr inbounds %"class.Kalmar::__index_leaf", %"class.Kalmar::__index_leaf"* %2, i64 %idx.ext.i
  store %"class.Kalmar::__index_leaf"* %add.ptr.i, %"class.Kalmar::__index_leaf"** %this.addr.i.i, align 8
  %this1.i.i = load %"class.Kalmar::__index_leaf"*, %"class.Kalmar::__index_leaf"** %this.addr.i.i, align 8
  %__idx.i.i = getelementptr inbounds %"class.Kalmar::__index_leaf", %"class.Kalmar::__index_leaf"* %this1.i.i, i32 0, i32 0
  %4 = load i32, i32* %__idx.i.i, align 4
  ret i32 %4
}

; Function Attrs: alwaysinline uwtable
define weak_odr dereferenceable(4) i32* @_ZN6Kalmar5indexILi1EEixEj(%"class.Kalmar::index"* %this, i32 %c) #4 align 2 {
  %this.addr.i.i = alloca %"class.Kalmar::__index_leaf"*, align 8
  %this.addr.i = alloca %"struct.Kalmar::index_impl"*, align 8
  %c.addr.i = alloca i32, align 4
  %this.addr = alloca %"class.Kalmar::index"*, align 8
  %c.addr = alloca i32, align 4
  store %"class.Kalmar::index"* %this, %"class.Kalmar::index"** %this.addr, align 8
  store i32 %c, i32* %c.addr, align 4
  %this1 = load %"class.Kalmar::index"*, %"class.Kalmar::index"** %this.addr, align 8
  %base_ = getelementptr inbounds %"class.Kalmar::index", %"class.Kalmar::index"* %this1, i32 0, i32 0
  %1 = load i32, i32* %c.addr, align 4
  store %"struct.Kalmar::index_impl"* %base_, %"struct.Kalmar::index_impl"** %this.addr.i, align 8
  store i32 %1, i32* %c.addr.i, align 4
  %this1.i = load %"struct.Kalmar::index_impl"*, %"struct.Kalmar::index_impl"** %this.addr.i, align 8
  %2 = bitcast %"struct.Kalmar::index_impl"* %this1.i to %"class.Kalmar::__index_leaf"*
  %3 = load i32, i32* %c.addr.i, align 4
  %idx.ext.i = zext i32 %3 to i64
  %add.ptr.i = getelementptr inbounds %"class.Kalmar::__index_leaf", %"class.Kalmar::__index_leaf"* %2, i64 %idx.ext.i
  store %"class.Kalmar::__index_leaf"* %add.ptr.i, %"class.Kalmar::__index_leaf"** %this.addr.i.i, align 8
  %this1.i.i = load %"class.Kalmar::__index_leaf"*, %"class.Kalmar::__index_leaf"** %this.addr.i.i, align 8
  %__idx.i.i = getelementptr inbounds %"class.Kalmar::__index_leaf", %"class.Kalmar::__index_leaf"* %this1.i.i, i32 0, i32 0
  ret i32* %__idx.i.i
}

; Function Attrs: alwaysinline uwtable
define weak_odr zeroext i1 @_ZNK6Kalmar5indexILi1EEeqERKS1_(%"class.Kalmar::index"* %this, %"class.Kalmar::index"* dereferenceable(8) %other) #4 align 2 {
  %this.addr.i.i.i2.i = alloca %"class.Kalmar::__index_leaf"*, align 8
  %this.addr.i.i3.i = alloca %"struct.Kalmar::index_impl"*, align 8
  %c.addr.i.i4.i = alloca i32, align 4
  %this.addr.i5.i = alloca %"class.Kalmar::index"*, align 8
  %c.addr.i6.i = alloca i32, align 4
  %this.addr.i.i.i.i = alloca %"class.Kalmar::__index_leaf"*, align 8
  %this.addr.i.i.i = alloca %"struct.Kalmar::index_impl"*, align 8
  %c.addr.i.i.i = alloca i32, align 4
  %this.addr.i.i = alloca %"class.Kalmar::index"*, align 8
  %c.addr.i.i = alloca i32, align 4
  %_lhs.addr.i = alloca %"class.Kalmar::index"*, align 8
  %_rhs.addr.i = alloca %"class.Kalmar::index"*, align 8
  %this.addr = alloca %"class.Kalmar::index"*, align 8
  %other.addr = alloca %"class.Kalmar::index"*, align 8
  store %"class.Kalmar::index"* %this, %"class.Kalmar::index"** %this.addr, align 8
  store %"class.Kalmar::index"* %other, %"class.Kalmar::index"** %other.addr, align 8
  %this1 = load %"class.Kalmar::index"*, %"class.Kalmar::index"** %this.addr, align 8
  %1 = load %"class.Kalmar::index"*, %"class.Kalmar::index"** %other.addr, align 8
  store %"class.Kalmar::index"* %this1, %"class.Kalmar::index"** %_lhs.addr.i, align 8
  store %"class.Kalmar::index"* %1, %"class.Kalmar::index"** %_rhs.addr.i, align 8
  %2 = load %"class.Kalmar::index"*, %"class.Kalmar::index"** %_lhs.addr.i, align 8
  store %"class.Kalmar::index"* %2, %"class.Kalmar::index"** %this.addr.i.i, align 8
  store i32 0, i32* %c.addr.i.i, align 4
  %this1.i.i = load %"class.Kalmar::index"*, %"class.Kalmar::index"** %this.addr.i.i, align 8
  %base_.i.i = getelementptr inbounds %"class.Kalmar::index", %"class.Kalmar::index"* %this1.i.i, i32 0, i32 0
  %3 = load i32, i32* %c.addr.i.i, align 4
  store %"struct.Kalmar::index_impl"* %base_.i.i, %"struct.Kalmar::index_impl"** %this.addr.i.i.i, align 8
  store i32 %3, i32* %c.addr.i.i.i, align 4
  %this1.i.i.i = load %"struct.Kalmar::index_impl"*, %"struct.Kalmar::index_impl"** %this.addr.i.i.i, align 8
  %4 = bitcast %"struct.Kalmar::index_impl"* %this1.i.i.i to %"class.Kalmar::__index_leaf"*
  %5 = load i32, i32* %c.addr.i.i.i, align 4
  %idx.ext.i.i.i = zext i32 %5 to i64
  %add.ptr.i.i.i = getelementptr inbounds %"class.Kalmar::__index_leaf", %"class.Kalmar::__index_leaf"* %4, i64 %idx.ext.i.i.i
  store %"class.Kalmar::__index_leaf"* %add.ptr.i.i.i, %"class.Kalmar::__index_leaf"** %this.addr.i.i.i.i, align 8
  %this1.i.i.i.i = load %"class.Kalmar::__index_leaf"*, %"class.Kalmar::__index_leaf"** %this.addr.i.i.i.i, align 8
  %__idx.i.i.i.i = getelementptr inbounds %"class.Kalmar::__index_leaf", %"class.Kalmar::__index_leaf"* %this1.i.i.i.i, i32 0, i32 0
  %6 = load i32, i32* %__idx.i.i.i.i, align 4
  %7 = load %"class.Kalmar::index"*, %"class.Kalmar::index"** %_rhs.addr.i, align 8
  store %"class.Kalmar::index"* %7, %"class.Kalmar::index"** %this.addr.i5.i, align 8
  store i32 0, i32* %c.addr.i6.i, align 4
  %this1.i7.i = load %"class.Kalmar::index"*, %"class.Kalmar::index"** %this.addr.i5.i, align 8
  %base_.i8.i = getelementptr inbounds %"class.Kalmar::index", %"class.Kalmar::index"* %this1.i7.i, i32 0, i32 0
  %8 = load i32, i32* %c.addr.i6.i, align 4
  store %"struct.Kalmar::index_impl"* %base_.i8.i, %"struct.Kalmar::index_impl"** %this.addr.i.i3.i, align 8
  store i32 %8, i32* %c.addr.i.i4.i, align 4
  %this1.i.i9.i = load %"struct.Kalmar::index_impl"*, %"struct.Kalmar::index_impl"** %this.addr.i.i3.i, align 8
  %9 = bitcast %"struct.Kalmar::index_impl"* %this1.i.i9.i to %"class.Kalmar::__index_leaf"*
  %10 = load i32, i32* %c.addr.i.i4.i, align 4
  %idx.ext.i.i10.i = zext i32 %10 to i64
  %add.ptr.i.i11.i = getelementptr inbounds %"class.Kalmar::__index_leaf", %"class.Kalmar::__index_leaf"* %9, i64 %idx.ext.i.i10.i
  store %"class.Kalmar::__index_leaf"* %add.ptr.i.i11.i, %"class.Kalmar::__index_leaf"** %this.addr.i.i.i2.i, align 8
  %this1.i.i.i12.i = load %"class.Kalmar::__index_leaf"*, %"class.Kalmar::__index_leaf"** %this.addr.i.i.i2.i, align 8
  %__idx.i.i.i13.i = getelementptr inbounds %"class.Kalmar::__index_leaf", %"class.Kalmar::__index_leaf"* %this1.i.i.i12.i, i32 0, i32 0
  %11 = load i32, i32* %__idx.i.i.i13.i, align 4
  %cmp.i = icmp eq i32 %6, %11
  ret i1 %cmp.i
}

; Function Attrs: alwaysinline uwtable
define weak_odr zeroext i1 @_ZNK6Kalmar5indexILi1EEneERKS1_(%"class.Kalmar::index"* %this, %"class.Kalmar::index"* dereferenceable(8) %other) #4 align 2 {
  %this.addr.i.i.i2.i.i = alloca %"class.Kalmar::__index_leaf"*, align 8
  %this.addr.i.i3.i.i = alloca %"struct.Kalmar::index_impl"*, align 8
  %c.addr.i.i4.i.i = alloca i32, align 4
  %this.addr.i5.i.i = alloca %"class.Kalmar::index"*, align 8
  %c.addr.i6.i.i = alloca i32, align 4
  %this.addr.i.i.i.i.i = alloca %"class.Kalmar::__index_leaf"*, align 8
  %this.addr.i.i.i.i = alloca %"struct.Kalmar::index_impl"*, align 8
  %c.addr.i.i.i.i = alloca i32, align 4
  %this.addr.i.i.i = alloca %"class.Kalmar::index"*, align 8
  %c.addr.i.i.i = alloca i32, align 4
  %_lhs.addr.i.i = alloca %"class.Kalmar::index"*, align 8
  %_rhs.addr.i.i = alloca %"class.Kalmar::index"*, align 8
  %this.addr.i = alloca %"class.Kalmar::index"*, align 8
  %other.addr.i = alloca %"class.Kalmar::index"*, align 8
  %this.addr = alloca %"class.Kalmar::index"*, align 8
  %other.addr = alloca %"class.Kalmar::index"*, align 8
  store %"class.Kalmar::index"* %this, %"class.Kalmar::index"** %this.addr, align 8
  store %"class.Kalmar::index"* %other, %"class.Kalmar::index"** %other.addr, align 8
  %this1 = load %"class.Kalmar::index"*, %"class.Kalmar::index"** %this.addr, align 8
  %1 = load %"class.Kalmar::index"*, %"class.Kalmar::index"** %other.addr, align 8
  store %"class.Kalmar::index"* %this1, %"class.Kalmar::index"** %this.addr.i, align 8
  store %"class.Kalmar::index"* %1, %"class.Kalmar::index"** %other.addr.i, align 8
  %this1.i = load %"class.Kalmar::index"*, %"class.Kalmar::index"** %this.addr.i, align 8
  %2 = load %"class.Kalmar::index"*, %"class.Kalmar::index"** %other.addr.i, align 8
  store %"class.Kalmar::index"* %this1.i, %"class.Kalmar::index"** %_lhs.addr.i.i, align 8
  store %"class.Kalmar::index"* %2, %"class.Kalmar::index"** %_rhs.addr.i.i, align 8
  %3 = load %"class.Kalmar::index"*, %"class.Kalmar::index"** %_lhs.addr.i.i, align 8
  store %"class.Kalmar::index"* %3, %"class.Kalmar::index"** %this.addr.i.i.i, align 8
  store i32 0, i32* %c.addr.i.i.i, align 4
  %this1.i.i.i = load %"class.Kalmar::index"*, %"class.Kalmar::index"** %this.addr.i.i.i, align 8
  %base_.i.i.i = getelementptr inbounds %"class.Kalmar::index", %"class.Kalmar::index"* %this1.i.i.i, i32 0, i32 0
  %4 = load i32, i32* %c.addr.i.i.i, align 4
  store %"struct.Kalmar::index_impl"* %base_.i.i.i, %"struct.Kalmar::index_impl"** %this.addr.i.i.i.i, align 8
  store i32 %4, i32* %c.addr.i.i.i.i, align 4
  %this1.i.i.i.i = load %"struct.Kalmar::index_impl"*, %"struct.Kalmar::index_impl"** %this.addr.i.i.i.i, align 8
  %5 = bitcast %"struct.Kalmar::index_impl"* %this1.i.i.i.i to %"class.Kalmar::__index_leaf"*
  %6 = load i32, i32* %c.addr.i.i.i.i, align 4
  %idx.ext.i.i.i.i = zext i32 %6 to i64
  %add.ptr.i.i.i.i = getelementptr inbounds %"class.Kalmar::__index_leaf", %"class.Kalmar::__index_leaf"* %5, i64 %idx.ext.i.i.i.i
  store %"class.Kalmar::__index_leaf"* %add.ptr.i.i.i.i, %"class.Kalmar::__index_leaf"** %this.addr.i.i.i.i.i, align 8
  %this1.i.i.i.i.i = load %"class.Kalmar::__index_leaf"*, %"class.Kalmar::__index_leaf"** %this.addr.i.i.i.i.i, align 8
  %__idx.i.i.i.i.i = getelementptr inbounds %"class.Kalmar::__index_leaf", %"class.Kalmar::__index_leaf"* %this1.i.i.i.i.i, i32 0, i32 0
  %7 = load i32, i32* %__idx.i.i.i.i.i, align 4
  %8 = load %"class.Kalmar::index"*, %"class.Kalmar::index"** %_rhs.addr.i.i, align 8
  store %"class.Kalmar::index"* %8, %"class.Kalmar::index"** %this.addr.i5.i.i, align 8
  store i32 0, i32* %c.addr.i6.i.i, align 4
  %this1.i7.i.i = load %"class.Kalmar::index"*, %"class.Kalmar::index"** %this.addr.i5.i.i, align 8
  %base_.i8.i.i = getelementptr inbounds %"class.Kalmar::index", %"class.Kalmar::index"* %this1.i7.i.i, i32 0, i32 0
  %9 = load i32, i32* %c.addr.i6.i.i, align 4
  store %"struct.Kalmar::index_impl"* %base_.i8.i.i, %"struct.Kalmar::index_impl"** %this.addr.i.i3.i.i, align 8
  store i32 %9, i32* %c.addr.i.i4.i.i, align 4
  %this1.i.i9.i.i = load %"struct.Kalmar::index_impl"*, %"struct.Kalmar::index_impl"** %this.addr.i.i3.i.i, align 8
  %10 = bitcast %"struct.Kalmar::index_impl"* %this1.i.i9.i.i to %"class.Kalmar::__index_leaf"*
  %11 = load i32, i32* %c.addr.i.i4.i.i, align 4
  %idx.ext.i.i10.i.i = zext i32 %11 to i64
  %add.ptr.i.i11.i.i = getelementptr inbounds %"class.Kalmar::__index_leaf", %"class.Kalmar::__index_leaf"* %10, i64 %idx.ext.i.i10.i.i
  store %"class.Kalmar::__index_leaf"* %add.ptr.i.i11.i.i, %"class.Kalmar::__index_leaf"** %this.addr.i.i.i2.i.i, align 8
  %this1.i.i.i12.i.i = load %"class.Kalmar::__index_leaf"*, %"class.Kalmar::__index_leaf"** %this.addr.i.i.i2.i.i, align 8
  %__idx.i.i.i13.i.i = getelementptr inbounds %"class.Kalmar::__index_leaf", %"class.Kalmar::__index_leaf"* %this1.i.i.i12.i.i, i32 0, i32 0
  %12 = load i32, i32* %__idx.i.i.i13.i.i, align 4
  %cmp.i.i = icmp eq i32 %7, %12
  %lnot = xor i1 %cmp.i.i, true
  ret i1 %lnot
}

; Function Attrs: alwaysinline uwtable
define weak_odr dereferenceable(8) %"class.Kalmar::index"* @_ZN6Kalmar5indexILi1EEpLERKS1_(%"class.Kalmar::index"* %this, %"class.Kalmar::index"* dereferenceable(8) %rhs) #4 align 2 {
  %this.addr.i5.i = alloca %"class.Kalmar::__index_leaf"*, align 8
  %__t.addr.i.i = alloca i32, align 4
  %1 = alloca %"class.Kalmar::__index_leaf", align 4
  %this.addr.i3.i = alloca %"struct.Kalmar::index_impl"*, align 8
  %this.addr.i.i = alloca %"class.Kalmar::__index_leaf"*, align 8
  %this.addr.i = alloca %"struct.Kalmar::index_impl"*, align 8
  %__t.addr.i = alloca %"struct.Kalmar::index_impl"*, align 8
  %agg.tmp.i = alloca %"class.Kalmar::__index_leaf", align 4
  %this.addr = alloca %"class.Kalmar::index"*, align 8
  %rhs.addr = alloca %"class.Kalmar::index"*, align 8
  store %"class.Kalmar::index"* %this, %"class.Kalmar::index"** %this.addr, align 8
  store %"class.Kalmar::index"* %rhs, %"class.Kalmar::index"** %rhs.addr, align 8
  %this1 = load %"class.Kalmar::index"*, %"class.Kalmar::index"** %this.addr, align 8
  %base_ = getelementptr inbounds %"class.Kalmar::index", %"class.Kalmar::index"* %this1, i32 0, i32 0
  %2 = load %"class.Kalmar::index"*, %"class.Kalmar::index"** %rhs.addr, align 8
  %base_2 = getelementptr inbounds %"class.Kalmar::index", %"class.Kalmar::index"* %2, i32 0, i32 0
  store %"struct.Kalmar::index_impl"* %base_, %"struct.Kalmar::index_impl"** %this.addr.i, align 8
  store %"struct.Kalmar::index_impl"* %base_2, %"struct.Kalmar::index_impl"** %__t.addr.i, align 8
  %this1.i = load %"struct.Kalmar::index_impl"*, %"struct.Kalmar::index_impl"** %this.addr.i, align 8
  %3 = bitcast %"struct.Kalmar::index_impl"* %this1.i to %"class.Kalmar::__index_leaf"*
  %4 = load %"struct.Kalmar::index_impl"*, %"struct.Kalmar::index_impl"** %__t.addr.i, align 8
  %5 = bitcast %"struct.Kalmar::index_impl"* %4 to %"class.Kalmar::__index_leaf"*
  store %"class.Kalmar::__index_leaf"* %5, %"class.Kalmar::__index_leaf"** %this.addr.i.i, align 8
  %this1.i.i = load %"class.Kalmar::__index_leaf"*, %"class.Kalmar::__index_leaf"** %this.addr.i.i, align 8
  %__idx.i.i = getelementptr inbounds %"class.Kalmar::__index_leaf", %"class.Kalmar::__index_leaf"* %this1.i.i, i32 0, i32 0
  %6 = load i32, i32* %__idx.i.i, align 4
  store %"class.Kalmar::__index_leaf"* %3, %"class.Kalmar::__index_leaf"** %this.addr.i5.i, align 8
  store i32 %6, i32* %__t.addr.i.i, align 4
  %this1.i6.i = load %"class.Kalmar::__index_leaf"*, %"class.Kalmar::__index_leaf"** %this.addr.i5.i, align 8
  %7 = load i32, i32* %__t.addr.i.i, align 4
  %__idx.i7.i = getelementptr inbounds %"class.Kalmar::__index_leaf", %"class.Kalmar::__index_leaf"* %this1.i6.i, i32 0, i32 0
  %8 = load i32, i32* %__idx.i7.i, align 4
  %add.i.i = add nsw i32 %8, %7
  store i32 %add.i.i, i32* %__idx.i7.i, align 4
  %9 = bitcast %"class.Kalmar::__index_leaf"* %agg.tmp.i to i8*
  %10 = bitcast %"class.Kalmar::__index_leaf"* %this1.i6.i to i8*
  call void @llvm.memcpy.p0i8.p0i8.i64(i8* %9, i8* %10, i64 8, i32 4, i1 false)
  %11 = bitcast %"class.Kalmar::__index_leaf"* %agg.tmp.i to i64*
  %12 = load i64, i64* %11, align 4
  %13 = bitcast %"class.Kalmar::__index_leaf"* %1 to i64*
  store i64 %12, i64* %13, align 4
  store %"struct.Kalmar::index_impl"* %this1.i, %"struct.Kalmar::index_impl"** %this.addr.i3.i, align 8
  %this1.i4.i = load %"struct.Kalmar::index_impl"*, %"struct.Kalmar::index_impl"** %this.addr.i3.i, align 8
  ret %"class.Kalmar::index"* %this1
}

; Function Attrs: alwaysinline uwtable
define weak_odr dereferenceable(8) %"class.Kalmar::index"* @_ZN6Kalmar5indexILi1EEmIERKS1_(%"class.Kalmar::index"* %this, %"class.Kalmar::index"* dereferenceable(8) %rhs) #4 align 2 {
  %this.addr.i5.i = alloca %"class.Kalmar::__index_leaf"*, align 8
  %__t.addr.i.i = alloca i32, align 4
  %1 = alloca %"class.Kalmar::__index_leaf", align 4
  %this.addr.i3.i = alloca %"struct.Kalmar::index_impl"*, align 8
  %this.addr.i.i = alloca %"class.Kalmar::__index_leaf"*, align 8
  %this.addr.i = alloca %"struct.Kalmar::index_impl"*, align 8
  %__t.addr.i = alloca %"struct.Kalmar::index_impl"*, align 8
  %agg.tmp.i = alloca %"class.Kalmar::__index_leaf", align 4
  %this.addr = alloca %"class.Kalmar::index"*, align 8
  %rhs.addr = alloca %"class.Kalmar::index"*, align 8
  store %"class.Kalmar::index"* %this, %"class.Kalmar::index"** %this.addr, align 8
  store %"class.Kalmar::index"* %rhs, %"class.Kalmar::index"** %rhs.addr, align 8
  %this1 = load %"class.Kalmar::index"*, %"class.Kalmar::index"** %this.addr, align 8
  %base_ = getelementptr inbounds %"class.Kalmar::index", %"class.Kalmar::index"* %this1, i32 0, i32 0
  %2 = load %"class.Kalmar::index"*, %"class.Kalmar::index"** %rhs.addr, align 8
  %base_2 = getelementptr inbounds %"class.Kalmar::index", %"class.Kalmar::index"* %2, i32 0, i32 0
  store %"struct.Kalmar::index_impl"* %base_, %"struct.Kalmar::index_impl"** %this.addr.i, align 8
  store %"struct.Kalmar::index_impl"* %base_2, %"struct.Kalmar::index_impl"** %__t.addr.i, align 8
  %this1.i = load %"struct.Kalmar::index_impl"*, %"struct.Kalmar::index_impl"** %this.addr.i, align 8
  %3 = bitcast %"struct.Kalmar::index_impl"* %this1.i to %"class.Kalmar::__index_leaf"*
  %4 = load %"struct.Kalmar::index_impl"*, %"struct.Kalmar::index_impl"** %__t.addr.i, align 8
  %5 = bitcast %"struct.Kalmar::index_impl"* %4 to %"class.Kalmar::__index_leaf"*
  store %"class.Kalmar::__index_leaf"* %5, %"class.Kalmar::__index_leaf"** %this.addr.i.i, align 8
  %this1.i.i = load %"class.Kalmar::__index_leaf"*, %"class.Kalmar::__index_leaf"** %this.addr.i.i, align 8
  %__idx.i.i = getelementptr inbounds %"class.Kalmar::__index_leaf", %"class.Kalmar::__index_leaf"* %this1.i.i, i32 0, i32 0
  %6 = load i32, i32* %__idx.i.i, align 4
  store %"class.Kalmar::__index_leaf"* %3, %"class.Kalmar::__index_leaf"** %this.addr.i5.i, align 8
  store i32 %6, i32* %__t.addr.i.i, align 4
  %this1.i6.i = load %"class.Kalmar::__index_leaf"*, %"class.Kalmar::__index_leaf"** %this.addr.i5.i, align 8
  %7 = load i32, i32* %__t.addr.i.i, align 4
  %__idx.i7.i = getelementptr inbounds %"class.Kalmar::__index_leaf", %"class.Kalmar::__index_leaf"* %this1.i6.i, i32 0, i32 0
  %8 = load i32, i32* %__idx.i7.i, align 4
  %sub.i.i = sub nsw i32 %8, %7
  store i32 %sub.i.i, i32* %__idx.i7.i, align 4
  %9 = bitcast %"class.Kalmar::__index_leaf"* %agg.tmp.i to i8*
  %10 = bitcast %"class.Kalmar::__index_leaf"* %this1.i6.i to i8*
  call void @llvm.memcpy.p0i8.p0i8.i64(i8* %9, i8* %10, i64 8, i32 4, i1 false)
  %11 = bitcast %"class.Kalmar::__index_leaf"* %agg.tmp.i to i64*
  %12 = load i64, i64* %11, align 4
  %13 = bitcast %"class.Kalmar::__index_leaf"* %1 to i64*
  store i64 %12, i64* %13, align 4
  store %"struct.Kalmar::index_impl"* %this1.i, %"struct.Kalmar::index_impl"** %this.addr.i3.i, align 8
  %this1.i4.i = load %"struct.Kalmar::index_impl"*, %"struct.Kalmar::index_impl"** %this.addr.i3.i, align 8
  ret %"class.Kalmar::index"* %this1
}

; Function Attrs: alwaysinline uwtable
define weak_odr dereferenceable(8) %"class.Kalmar::index"* @_ZN6Kalmar5indexILi1EEmLERKS1_(%"class.Kalmar::index"* %this, %"class.Kalmar::index"* dereferenceable(8) %__r) #4 align 2 {
  %this.addr.i5.i = alloca %"class.Kalmar::__index_leaf"*, align 8
  %__t.addr.i.i = alloca i32, align 4
  %1 = alloca %"class.Kalmar::__index_leaf", align 4
  %this.addr.i3.i = alloca %"struct.Kalmar::index_impl"*, align 8
  %this.addr.i.i = alloca %"class.Kalmar::__index_leaf"*, align 8
  %this.addr.i = alloca %"struct.Kalmar::index_impl"*, align 8
  %__t.addr.i = alloca %"struct.Kalmar::index_impl"*, align 8
  %agg.tmp.i = alloca %"class.Kalmar::__index_leaf", align 4
  %this.addr = alloca %"class.Kalmar::index"*, align 8
  %__r.addr = alloca %"class.Kalmar::index"*, align 8
  store %"class.Kalmar::index"* %this, %"class.Kalmar::index"** %this.addr, align 8
  store %"class.Kalmar::index"* %__r, %"class.Kalmar::index"** %__r.addr, align 8
  %this1 = load %"class.Kalmar::index"*, %"class.Kalmar::index"** %this.addr, align 8
  %base_ = getelementptr inbounds %"class.Kalmar::index", %"class.Kalmar::index"* %this1, i32 0, i32 0
  %2 = load %"class.Kalmar::index"*, %"class.Kalmar::index"** %__r.addr, align 8
  %base_2 = getelementptr inbounds %"class.Kalmar::index", %"class.Kalmar::index"* %2, i32 0, i32 0
  store %"struct.Kalmar::index_impl"* %base_, %"struct.Kalmar::index_impl"** %this.addr.i, align 8
  store %"struct.Kalmar::index_impl"* %base_2, %"struct.Kalmar::index_impl"** %__t.addr.i, align 8
  %this1.i = load %"struct.Kalmar::index_impl"*, %"struct.Kalmar::index_impl"** %this.addr.i, align 8
  %3 = bitcast %"struct.Kalmar::index_impl"* %this1.i to %"class.Kalmar::__index_leaf"*
  %4 = load %"struct.Kalmar::index_impl"*, %"struct.Kalmar::index_impl"** %__t.addr.i, align 8
  %5 = bitcast %"struct.Kalmar::index_impl"* %4 to %"class.Kalmar::__index_leaf"*
  store %"class.Kalmar::__index_leaf"* %5, %"class.Kalmar::__index_leaf"** %this.addr.i.i, align 8
  %this1.i.i = load %"class.Kalmar::__index_leaf"*, %"class.Kalmar::__index_leaf"** %this.addr.i.i, align 8
  %__idx.i.i = getelementptr inbounds %"class.Kalmar::__index_leaf", %"class.Kalmar::__index_leaf"* %this1.i.i, i32 0, i32 0
  %6 = load i32, i32* %__idx.i.i, align 4
  store %"class.Kalmar::__index_leaf"* %3, %"class.Kalmar::__index_leaf"** %this.addr.i5.i, align 8
  store i32 %6, i32* %__t.addr.i.i, align 4
  %this1.i6.i = load %"class.Kalmar::__index_leaf"*, %"class.Kalmar::__index_leaf"** %this.addr.i5.i, align 8
  %7 = load i32, i32* %__t.addr.i.i, align 4
  %__idx.i7.i = getelementptr inbounds %"class.Kalmar::__index_leaf", %"class.Kalmar::__index_leaf"* %this1.i6.i, i32 0, i32 0
  %8 = load i32, i32* %__idx.i7.i, align 4
  %mul.i.i = mul nsw i32 %8, %7
  store i32 %mul.i.i, i32* %__idx.i7.i, align 4
  %9 = bitcast %"class.Kalmar::__index_leaf"* %agg.tmp.i to i8*
  %10 = bitcast %"class.Kalmar::__index_leaf"* %this1.i6.i to i8*
  call void @llvm.memcpy.p0i8.p0i8.i64(i8* %9, i8* %10, i64 8, i32 4, i1 false)
  %11 = bitcast %"class.Kalmar::__index_leaf"* %agg.tmp.i to i64*
  %12 = load i64, i64* %11, align 4
  %13 = bitcast %"class.Kalmar::__index_leaf"* %1 to i64*
  store i64 %12, i64* %13, align 4
  store %"struct.Kalmar::index_impl"* %this1.i, %"struct.Kalmar::index_impl"** %this.addr.i3.i, align 8
  %this1.i4.i = load %"struct.Kalmar::index_impl"*, %"struct.Kalmar::index_impl"** %this.addr.i3.i, align 8
  ret %"class.Kalmar::index"* %this1
}

; Function Attrs: alwaysinline uwtable
define weak_odr dereferenceable(8) %"class.Kalmar::index"* @_ZN6Kalmar5indexILi1EEdVERKS1_(%"class.Kalmar::index"* %this, %"class.Kalmar::index"* dereferenceable(8) %__r) #4 align 2 {
  %this.addr.i5.i = alloca %"class.Kalmar::__index_leaf"*, align 8
  %__t.addr.i.i = alloca i32, align 4
  %1 = alloca %"class.Kalmar::__index_leaf", align 4
  %this.addr.i3.i = alloca %"struct.Kalmar::index_impl"*, align 8
  %this.addr.i.i = alloca %"class.Kalmar::__index_leaf"*, align 8
  %this.addr.i = alloca %"struct.Kalmar::index_impl"*, align 8
  %__t.addr.i = alloca %"struct.Kalmar::index_impl"*, align 8
  %agg.tmp.i = alloca %"class.Kalmar::__index_leaf", align 4
  %this.addr = alloca %"class.Kalmar::index"*, align 8
  %__r.addr = alloca %"class.Kalmar::index"*, align 8
  store %"class.Kalmar::index"* %this, %"class.Kalmar::index"** %this.addr, align 8
  store %"class.Kalmar::index"* %__r, %"class.Kalmar::index"** %__r.addr, align 8
  %this1 = load %"class.Kalmar::index"*, %"class.Kalmar::index"** %this.addr, align 8
  %base_ = getelementptr inbounds %"class.Kalmar::index", %"class.Kalmar::index"* %this1, i32 0, i32 0
  %2 = load %"class.Kalmar::index"*, %"class.Kalmar::index"** %__r.addr, align 8
  %base_2 = getelementptr inbounds %"class.Kalmar::index", %"class.Kalmar::index"* %2, i32 0, i32 0
  store %"struct.Kalmar::index_impl"* %base_, %"struct.Kalmar::index_impl"** %this.addr.i, align 8
  store %"struct.Kalmar::index_impl"* %base_2, %"struct.Kalmar::index_impl"** %__t.addr.i, align 8
  %this1.i = load %"struct.Kalmar::index_impl"*, %"struct.Kalmar::index_impl"** %this.addr.i, align 8
  %3 = bitcast %"struct.Kalmar::index_impl"* %this1.i to %"class.Kalmar::__index_leaf"*
  %4 = load %"struct.Kalmar::index_impl"*, %"struct.Kalmar::index_impl"** %__t.addr.i, align 8
  %5 = bitcast %"struct.Kalmar::index_impl"* %4 to %"class.Kalmar::__index_leaf"*
  store %"class.Kalmar::__index_leaf"* %5, %"class.Kalmar::__index_leaf"** %this.addr.i.i, align 8
  %this1.i.i = load %"class.Kalmar::__index_leaf"*, %"class.Kalmar::__index_leaf"** %this.addr.i.i, align 8
  %__idx.i.i = getelementptr inbounds %"class.Kalmar::__index_leaf", %"class.Kalmar::__index_leaf"* %this1.i.i, i32 0, i32 0
  %6 = load i32, i32* %__idx.i.i, align 4
  store %"class.Kalmar::__index_leaf"* %3, %"class.Kalmar::__index_leaf"** %this.addr.i5.i, align 8
  store i32 %6, i32* %__t.addr.i.i, align 4
  %this1.i6.i = load %"class.Kalmar::__index_leaf"*, %"class.Kalmar::__index_leaf"** %this.addr.i5.i, align 8
  %7 = load i32, i32* %__t.addr.i.i, align 4
  %__idx.i7.i = getelementptr inbounds %"class.Kalmar::__index_leaf", %"class.Kalmar::__index_leaf"* %this1.i6.i, i32 0, i32 0
  %8 = load i32, i32* %__idx.i7.i, align 4
  %div.i.i = sdiv i32 %8, %7
  store i32 %div.i.i, i32* %__idx.i7.i, align 4
  %9 = bitcast %"class.Kalmar::__index_leaf"* %agg.tmp.i to i8*
  %10 = bitcast %"class.Kalmar::__index_leaf"* %this1.i6.i to i8*
  call void @llvm.memcpy.p0i8.p0i8.i64(i8* %9, i8* %10, i64 8, i32 4, i1 false)
  %11 = bitcast %"class.Kalmar::__index_leaf"* %agg.tmp.i to i64*
  %12 = load i64, i64* %11, align 4
  %13 = bitcast %"class.Kalmar::__index_leaf"* %1 to i64*
  store i64 %12, i64* %13, align 4
  store %"struct.Kalmar::index_impl"* %this1.i, %"struct.Kalmar::index_impl"** %this.addr.i3.i, align 8
  %this1.i4.i = load %"struct.Kalmar::index_impl"*, %"struct.Kalmar::index_impl"** %this.addr.i3.i, align 8
  ret %"class.Kalmar::index"* %this1
}

; Function Attrs: alwaysinline uwtable
define weak_odr dereferenceable(8) %"class.Kalmar::index"* @_ZN6Kalmar5indexILi1EErMERKS1_(%"class.Kalmar::index"* %this, %"class.Kalmar::index"* dereferenceable(8) %__r) #4 align 2 {
  %this.addr.i5.i = alloca %"class.Kalmar::__index_leaf"*, align 8
  %__t.addr.i.i = alloca i32, align 4
  %1 = alloca %"class.Kalmar::__index_leaf", align 4
  %this.addr.i3.i = alloca %"struct.Kalmar::index_impl"*, align 8
  %this.addr.i.i = alloca %"class.Kalmar::__index_leaf"*, align 8
  %this.addr.i = alloca %"struct.Kalmar::index_impl"*, align 8
  %__t.addr.i = alloca %"struct.Kalmar::index_impl"*, align 8
  %agg.tmp.i = alloca %"class.Kalmar::__index_leaf", align 4
  %this.addr = alloca %"class.Kalmar::index"*, align 8
  %__r.addr = alloca %"class.Kalmar::index"*, align 8
  store %"class.Kalmar::index"* %this, %"class.Kalmar::index"** %this.addr, align 8
  store %"class.Kalmar::index"* %__r, %"class.Kalmar::index"** %__r.addr, align 8
  %this1 = load %"class.Kalmar::index"*, %"class.Kalmar::index"** %this.addr, align 8
  %base_ = getelementptr inbounds %"class.Kalmar::index", %"class.Kalmar::index"* %this1, i32 0, i32 0
  %2 = load %"class.Kalmar::index"*, %"class.Kalmar::index"** %__r.addr, align 8
  %base_2 = getelementptr inbounds %"class.Kalmar::index", %"class.Kalmar::index"* %2, i32 0, i32 0
  store %"struct.Kalmar::index_impl"* %base_, %"struct.Kalmar::index_impl"** %this.addr.i, align 8
  store %"struct.Kalmar::index_impl"* %base_2, %"struct.Kalmar::index_impl"** %__t.addr.i, align 8
  %this1.i = load %"struct.Kalmar::index_impl"*, %"struct.Kalmar::index_impl"** %this.addr.i, align 8
  %3 = bitcast %"struct.Kalmar::index_impl"* %this1.i to %"class.Kalmar::__index_leaf"*
  %4 = load %"struct.Kalmar::index_impl"*, %"struct.Kalmar::index_impl"** %__t.addr.i, align 8
  %5 = bitcast %"struct.Kalmar::index_impl"* %4 to %"class.Kalmar::__index_leaf"*
  store %"class.Kalmar::__index_leaf"* %5, %"class.Kalmar::__index_leaf"** %this.addr.i.i, align 8
  %this1.i.i = load %"class.Kalmar::__index_leaf"*, %"class.Kalmar::__index_leaf"** %this.addr.i.i, align 8
  %__idx.i.i = getelementptr inbounds %"class.Kalmar::__index_leaf", %"class.Kalmar::__index_leaf"* %this1.i.i, i32 0, i32 0
  %6 = load i32, i32* %__idx.i.i, align 4
  store %"class.Kalmar::__index_leaf"* %3, %"class.Kalmar::__index_leaf"** %this.addr.i5.i, align 8
  store i32 %6, i32* %__t.addr.i.i, align 4
  %this1.i6.i = load %"class.Kalmar::__index_leaf"*, %"class.Kalmar::__index_leaf"** %this.addr.i5.i, align 8
  %7 = load i32, i32* %__t.addr.i.i, align 4
  %__idx.i7.i = getelementptr inbounds %"class.Kalmar::__index_leaf", %"class.Kalmar::__index_leaf"* %this1.i6.i, i32 0, i32 0
  %8 = load i32, i32* %__idx.i7.i, align 4
  %rem.i.i = srem i32 %8, %7
  store i32 %rem.i.i, i32* %__idx.i7.i, align 4
  %9 = bitcast %"class.Kalmar::__index_leaf"* %agg.tmp.i to i8*
  %10 = bitcast %"class.Kalmar::__index_leaf"* %this1.i6.i to i8*
  call void @llvm.memcpy.p0i8.p0i8.i64(i8* %9, i8* %10, i64 8, i32 4, i1 false)
  %11 = bitcast %"class.Kalmar::__index_leaf"* %agg.tmp.i to i64*
  %12 = load i64, i64* %11, align 4
  %13 = bitcast %"class.Kalmar::__index_leaf"* %1 to i64*
  store i64 %12, i64* %13, align 4
  store %"struct.Kalmar::index_impl"* %this1.i, %"struct.Kalmar::index_impl"** %this.addr.i3.i, align 8
  %this1.i4.i = load %"struct.Kalmar::index_impl"*, %"struct.Kalmar::index_impl"** %this.addr.i3.i, align 8
  ret %"class.Kalmar::index"* %this1
}

; Function Attrs: alwaysinline uwtable
define weak_odr dereferenceable(8) %"class.Kalmar::index"* @_ZN6Kalmar5indexILi1EEpLEi(%"class.Kalmar::index"* %this, i32 %value) #4 align 2 {
  %1 = alloca %"class.Kalmar::__index_leaf", align 4
  %this.addr.i2.i = alloca %"struct.Kalmar::index_impl"*, align 8
  %this.addr.i.i = alloca %"class.Kalmar::__index_leaf"*, align 8
  %__t.addr.i.i = alloca i32, align 4
  %this.addr.i = alloca %"struct.Kalmar::index_impl"*, align 8
  %__t.addr.i = alloca i32, align 4
  %agg.tmp.i = alloca %"class.Kalmar::__index_leaf", align 4
  %this.addr = alloca %"class.Kalmar::index"*, align 8
  %value.addr = alloca i32, align 4
  store %"class.Kalmar::index"* %this, %"class.Kalmar::index"** %this.addr, align 8
  store i32 %value, i32* %value.addr, align 4
  %this1 = load %"class.Kalmar::index"*, %"class.Kalmar::index"** %this.addr, align 8
  %base_ = getelementptr inbounds %"class.Kalmar::index", %"class.Kalmar::index"* %this1, i32 0, i32 0
  %2 = load i32, i32* %value.addr, align 4
  store %"struct.Kalmar::index_impl"* %base_, %"struct.Kalmar::index_impl"** %this.addr.i, align 8
  store i32 %2, i32* %__t.addr.i, align 4
  %this1.i = load %"struct.Kalmar::index_impl"*, %"struct.Kalmar::index_impl"** %this.addr.i, align 8
  %3 = bitcast %"struct.Kalmar::index_impl"* %this1.i to %"class.Kalmar::__index_leaf"*
  %4 = load i32, i32* %__t.addr.i, align 4
  store %"class.Kalmar::__index_leaf"* %3, %"class.Kalmar::__index_leaf"** %this.addr.i.i, align 8
  store i32 %4, i32* %__t.addr.i.i, align 4
  %this1.i.i = load %"class.Kalmar::__index_leaf"*, %"class.Kalmar::__index_leaf"** %this.addr.i.i, align 8
  %5 = load i32, i32* %__t.addr.i.i, align 4
  %__idx.i.i = getelementptr inbounds %"class.Kalmar::__index_leaf", %"class.Kalmar::__index_leaf"* %this1.i.i, i32 0, i32 0
  %6 = load i32, i32* %__idx.i.i, align 4
  %add.i.i = add nsw i32 %6, %5
  store i32 %add.i.i, i32* %__idx.i.i, align 4
  %7 = bitcast %"class.Kalmar::__index_leaf"* %agg.tmp.i to i8*
  %8 = bitcast %"class.Kalmar::__index_leaf"* %this1.i.i to i8*
  call void @llvm.memcpy.p0i8.p0i8.i64(i8* %7, i8* %8, i64 8, i32 4, i1 false) #3
  %9 = bitcast %"class.Kalmar::__index_leaf"* %agg.tmp.i to i64*
  %10 = load i64, i64* %9, align 4
  %11 = bitcast %"class.Kalmar::__index_leaf"* %1 to i64*
  store i64 %10, i64* %11, align 4
  store %"struct.Kalmar::index_impl"* %this1.i, %"struct.Kalmar::index_impl"** %this.addr.i2.i, align 8
  %this1.i3.i = load %"struct.Kalmar::index_impl"*, %"struct.Kalmar::index_impl"** %this.addr.i2.i, align 8
  ret %"class.Kalmar::index"* %this1
}

; Function Attrs: alwaysinline uwtable
define weak_odr dereferenceable(8) %"class.Kalmar::index"* @_ZN6Kalmar5indexILi1EEmIEi(%"class.Kalmar::index"* %this, i32 %value) #4 align 2 {
  %1 = alloca %"class.Kalmar::__index_leaf", align 4
  %this.addr.i2.i = alloca %"struct.Kalmar::index_impl"*, align 8
  %this.addr.i.i = alloca %"class.Kalmar::__index_leaf"*, align 8
  %__t.addr.i.i = alloca i32, align 4
  %this.addr.i = alloca %"struct.Kalmar::index_impl"*, align 8
  %__t.addr.i = alloca i32, align 4
  %agg.tmp.i = alloca %"class.Kalmar::__index_leaf", align 4
  %this.addr = alloca %"class.Kalmar::index"*, align 8
  %value.addr = alloca i32, align 4
  store %"class.Kalmar::index"* %this, %"class.Kalmar::index"** %this.addr, align 8
  store i32 %value, i32* %value.addr, align 4
  %this1 = load %"class.Kalmar::index"*, %"class.Kalmar::index"** %this.addr, align 8
  %base_ = getelementptr inbounds %"class.Kalmar::index", %"class.Kalmar::index"* %this1, i32 0, i32 0
  %2 = load i32, i32* %value.addr, align 4
  store %"struct.Kalmar::index_impl"* %base_, %"struct.Kalmar::index_impl"** %this.addr.i, align 8
  store i32 %2, i32* %__t.addr.i, align 4
  %this1.i = load %"struct.Kalmar::index_impl"*, %"struct.Kalmar::index_impl"** %this.addr.i, align 8
  %3 = bitcast %"struct.Kalmar::index_impl"* %this1.i to %"class.Kalmar::__index_leaf"*
  %4 = load i32, i32* %__t.addr.i, align 4
  store %"class.Kalmar::__index_leaf"* %3, %"class.Kalmar::__index_leaf"** %this.addr.i.i, align 8
  store i32 %4, i32* %__t.addr.i.i, align 4
  %this1.i.i = load %"class.Kalmar::__index_leaf"*, %"class.Kalmar::__index_leaf"** %this.addr.i.i, align 8
  %5 = load i32, i32* %__t.addr.i.i, align 4
  %__idx.i.i = getelementptr inbounds %"class.Kalmar::__index_leaf", %"class.Kalmar::__index_leaf"* %this1.i.i, i32 0, i32 0
  %6 = load i32, i32* %__idx.i.i, align 4
  %sub.i.i = sub nsw i32 %6, %5
  store i32 %sub.i.i, i32* %__idx.i.i, align 4
  %7 = bitcast %"class.Kalmar::__index_leaf"* %agg.tmp.i to i8*
  %8 = bitcast %"class.Kalmar::__index_leaf"* %this1.i.i to i8*
  call void @llvm.memcpy.p0i8.p0i8.i64(i8* %7, i8* %8, i64 8, i32 4, i1 false) #3
  %9 = bitcast %"class.Kalmar::__index_leaf"* %agg.tmp.i to i64*
  %10 = load i64, i64* %9, align 4
  %11 = bitcast %"class.Kalmar::__index_leaf"* %1 to i64*
  store i64 %10, i64* %11, align 4
  store %"struct.Kalmar::index_impl"* %this1.i, %"struct.Kalmar::index_impl"** %this.addr.i2.i, align 8
  %this1.i3.i = load %"struct.Kalmar::index_impl"*, %"struct.Kalmar::index_impl"** %this.addr.i2.i, align 8
  ret %"class.Kalmar::index"* %this1
}

; Function Attrs: alwaysinline uwtable
define weak_odr dereferenceable(8) %"class.Kalmar::index"* @_ZN6Kalmar5indexILi1EEmLEi(%"class.Kalmar::index"* %this, i32 %value) #4 align 2 {
  %1 = alloca %"class.Kalmar::__index_leaf", align 4
  %this.addr.i2.i = alloca %"struct.Kalmar::index_impl"*, align 8
  %this.addr.i.i = alloca %"class.Kalmar::__index_leaf"*, align 8
  %__t.addr.i.i = alloca i32, align 4
  %this.addr.i = alloca %"struct.Kalmar::index_impl"*, align 8
  %__t.addr.i = alloca i32, align 4
  %agg.tmp.i = alloca %"class.Kalmar::__index_leaf", align 4
  %this.addr = alloca %"class.Kalmar::index"*, align 8
  %value.addr = alloca i32, align 4
  store %"class.Kalmar::index"* %this, %"class.Kalmar::index"** %this.addr, align 8
  store i32 %value, i32* %value.addr, align 4
  %this1 = load %"class.Kalmar::index"*, %"class.Kalmar::index"** %this.addr, align 8
  %base_ = getelementptr inbounds %"class.Kalmar::index", %"class.Kalmar::index"* %this1, i32 0, i32 0
  %2 = load i32, i32* %value.addr, align 4
  store %"struct.Kalmar::index_impl"* %base_, %"struct.Kalmar::index_impl"** %this.addr.i, align 8
  store i32 %2, i32* %__t.addr.i, align 4
  %this1.i = load %"struct.Kalmar::index_impl"*, %"struct.Kalmar::index_impl"** %this.addr.i, align 8
  %3 = bitcast %"struct.Kalmar::index_impl"* %this1.i to %"class.Kalmar::__index_leaf"*
  %4 = load i32, i32* %__t.addr.i, align 4
  store %"class.Kalmar::__index_leaf"* %3, %"class.Kalmar::__index_leaf"** %this.addr.i.i, align 8
  store i32 %4, i32* %__t.addr.i.i, align 4
  %this1.i.i = load %"class.Kalmar::__index_leaf"*, %"class.Kalmar::__index_leaf"** %this.addr.i.i, align 8
  %5 = load i32, i32* %__t.addr.i.i, align 4
  %__idx.i.i = getelementptr inbounds %"class.Kalmar::__index_leaf", %"class.Kalmar::__index_leaf"* %this1.i.i, i32 0, i32 0
  %6 = load i32, i32* %__idx.i.i, align 4
  %mul.i.i = mul nsw i32 %6, %5
  store i32 %mul.i.i, i32* %__idx.i.i, align 4
  %7 = bitcast %"class.Kalmar::__index_leaf"* %agg.tmp.i to i8*
  %8 = bitcast %"class.Kalmar::__index_leaf"* %this1.i.i to i8*
  call void @llvm.memcpy.p0i8.p0i8.i64(i8* %7, i8* %8, i64 8, i32 4, i1 false) #3
  %9 = bitcast %"class.Kalmar::__index_leaf"* %agg.tmp.i to i64*
  %10 = load i64, i64* %9, align 4
  %11 = bitcast %"class.Kalmar::__index_leaf"* %1 to i64*
  store i64 %10, i64* %11, align 4
  store %"struct.Kalmar::index_impl"* %this1.i, %"struct.Kalmar::index_impl"** %this.addr.i2.i, align 8
  %this1.i3.i = load %"struct.Kalmar::index_impl"*, %"struct.Kalmar::index_impl"** %this.addr.i2.i, align 8
  ret %"class.Kalmar::index"* %this1
}

; Function Attrs: alwaysinline uwtable
define weak_odr dereferenceable(8) %"class.Kalmar::index"* @_ZN6Kalmar5indexILi1EEdVEi(%"class.Kalmar::index"* %this, i32 %value) #4 align 2 {
  %1 = alloca %"class.Kalmar::__index_leaf", align 4
  %this.addr.i2.i = alloca %"struct.Kalmar::index_impl"*, align 8
  %this.addr.i.i = alloca %"class.Kalmar::__index_leaf"*, align 8
  %__t.addr.i.i = alloca i32, align 4
  %this.addr.i = alloca %"struct.Kalmar::index_impl"*, align 8
  %__t.addr.i = alloca i32, align 4
  %agg.tmp.i = alloca %"class.Kalmar::__index_leaf", align 4
  %this.addr = alloca %"class.Kalmar::index"*, align 8
  %value.addr = alloca i32, align 4
  store %"class.Kalmar::index"* %this, %"class.Kalmar::index"** %this.addr, align 8
  store i32 %value, i32* %value.addr, align 4
  %this1 = load %"class.Kalmar::index"*, %"class.Kalmar::index"** %this.addr, align 8
  %base_ = getelementptr inbounds %"class.Kalmar::index", %"class.Kalmar::index"* %this1, i32 0, i32 0
  %2 = load i32, i32* %value.addr, align 4
  store %"struct.Kalmar::index_impl"* %base_, %"struct.Kalmar::index_impl"** %this.addr.i, align 8
  store i32 %2, i32* %__t.addr.i, align 4
  %this1.i = load %"struct.Kalmar::index_impl"*, %"struct.Kalmar::index_impl"** %this.addr.i, align 8
  %3 = bitcast %"struct.Kalmar::index_impl"* %this1.i to %"class.Kalmar::__index_leaf"*
  %4 = load i32, i32* %__t.addr.i, align 4
  store %"class.Kalmar::__index_leaf"* %3, %"class.Kalmar::__index_leaf"** %this.addr.i.i, align 8
  store i32 %4, i32* %__t.addr.i.i, align 4
  %this1.i.i = load %"class.Kalmar::__index_leaf"*, %"class.Kalmar::__index_leaf"** %this.addr.i.i, align 8
  %5 = load i32, i32* %__t.addr.i.i, align 4
  %__idx.i.i = getelementptr inbounds %"class.Kalmar::__index_leaf", %"class.Kalmar::__index_leaf"* %this1.i.i, i32 0, i32 0
  %6 = load i32, i32* %__idx.i.i, align 4
  %div.i.i = sdiv i32 %6, %5
  store i32 %div.i.i, i32* %__idx.i.i, align 4
  %7 = bitcast %"class.Kalmar::__index_leaf"* %agg.tmp.i to i8*
  %8 = bitcast %"class.Kalmar::__index_leaf"* %this1.i.i to i8*
  call void @llvm.memcpy.p0i8.p0i8.i64(i8* %7, i8* %8, i64 8, i32 4, i1 false) #3
  %9 = bitcast %"class.Kalmar::__index_leaf"* %agg.tmp.i to i64*
  %10 = load i64, i64* %9, align 4
  %11 = bitcast %"class.Kalmar::__index_leaf"* %1 to i64*
  store i64 %10, i64* %11, align 4
  store %"struct.Kalmar::index_impl"* %this1.i, %"struct.Kalmar::index_impl"** %this.addr.i2.i, align 8
  %this1.i3.i = load %"struct.Kalmar::index_impl"*, %"struct.Kalmar::index_impl"** %this.addr.i2.i, align 8
  ret %"class.Kalmar::index"* %this1
}

; Function Attrs: alwaysinline uwtable
define weak_odr dereferenceable(8) %"class.Kalmar::index"* @_ZN6Kalmar5indexILi1EErMEi(%"class.Kalmar::index"* %this, i32 %value) #4 align 2 {
  %1 = alloca %"class.Kalmar::__index_leaf", align 4
  %this.addr.i2.i = alloca %"struct.Kalmar::index_impl"*, align 8
  %this.addr.i.i = alloca %"class.Kalmar::__index_leaf"*, align 8
  %__t.addr.i.i = alloca i32, align 4
  %this.addr.i = alloca %"struct.Kalmar::index_impl"*, align 8
  %__t.addr.i = alloca i32, align 4
  %agg.tmp.i = alloca %"class.Kalmar::__index_leaf", align 4
  %this.addr = alloca %"class.Kalmar::index"*, align 8
  %value.addr = alloca i32, align 4
  store %"class.Kalmar::index"* %this, %"class.Kalmar::index"** %this.addr, align 8
  store i32 %value, i32* %value.addr, align 4
  %this1 = load %"class.Kalmar::index"*, %"class.Kalmar::index"** %this.addr, align 8
  %base_ = getelementptr inbounds %"class.Kalmar::index", %"class.Kalmar::index"* %this1, i32 0, i32 0
  %2 = load i32, i32* %value.addr, align 4
  store %"struct.Kalmar::index_impl"* %base_, %"struct.Kalmar::index_impl"** %this.addr.i, align 8
  store i32 %2, i32* %__t.addr.i, align 4
  %this1.i = load %"struct.Kalmar::index_impl"*, %"struct.Kalmar::index_impl"** %this.addr.i, align 8
  %3 = bitcast %"struct.Kalmar::index_impl"* %this1.i to %"class.Kalmar::__index_leaf"*
  %4 = load i32, i32* %__t.addr.i, align 4
  store %"class.Kalmar::__index_leaf"* %3, %"class.Kalmar::__index_leaf"** %this.addr.i.i, align 8
  store i32 %4, i32* %__t.addr.i.i, align 4
  %this1.i.i = load %"class.Kalmar::__index_leaf"*, %"class.Kalmar::__index_leaf"** %this.addr.i.i, align 8
  %5 = load i32, i32* %__t.addr.i.i, align 4
  %__idx.i.i = getelementptr inbounds %"class.Kalmar::__index_leaf", %"class.Kalmar::__index_leaf"* %this1.i.i, i32 0, i32 0
  %6 = load i32, i32* %__idx.i.i, align 4
  %rem.i.i = srem i32 %6, %5
  store i32 %rem.i.i, i32* %__idx.i.i, align 4
  %7 = bitcast %"class.Kalmar::__index_leaf"* %agg.tmp.i to i8*
  %8 = bitcast %"class.Kalmar::__index_leaf"* %this1.i.i to i8*
  call void @llvm.memcpy.p0i8.p0i8.i64(i8* %7, i8* %8, i64 8, i32 4, i1 false) #3
  %9 = bitcast %"class.Kalmar::__index_leaf"* %agg.tmp.i to i64*
  %10 = load i64, i64* %9, align 4
  %11 = bitcast %"class.Kalmar::__index_leaf"* %1 to i64*
  store i64 %10, i64* %11, align 4
  store %"struct.Kalmar::index_impl"* %this1.i, %"struct.Kalmar::index_impl"** %this.addr.i2.i, align 8
  %this1.i3.i = load %"struct.Kalmar::index_impl"*, %"struct.Kalmar::index_impl"** %this.addr.i2.i, align 8
  ret %"class.Kalmar::index"* %this1
}

; Function Attrs: alwaysinline uwtable
define weak_odr dereferenceable(8) %"class.Kalmar::index"* @_ZN6Kalmar5indexILi1EEppEv(%"class.Kalmar::index"* %this) #4 align 2 {
  %1 = alloca %"class.Kalmar::__index_leaf", align 4
  %this.addr.i2.i = alloca %"struct.Kalmar::index_impl"*, align 8
  %this.addr.i.i = alloca %"class.Kalmar::__index_leaf"*, align 8
  %__t.addr.i.i = alloca i32, align 4
  %this.addr.i = alloca %"struct.Kalmar::index_impl"*, align 8
  %__t.addr.i = alloca i32, align 4
  %agg.tmp.i = alloca %"class.Kalmar::__index_leaf", align 4
  %this.addr = alloca %"class.Kalmar::index"*, align 8
  store %"class.Kalmar::index"* %this, %"class.Kalmar::index"** %this.addr, align 8
  %this1 = load %"class.Kalmar::index"*, %"class.Kalmar::index"** %this.addr, align 8
  %base_ = getelementptr inbounds %"class.Kalmar::index", %"class.Kalmar::index"* %this1, i32 0, i32 0
  store %"struct.Kalmar::index_impl"* %base_, %"struct.Kalmar::index_impl"** %this.addr.i, align 8
  store i32 1, i32* %__t.addr.i, align 4
  %this1.i = load %"struct.Kalmar::index_impl"*, %"struct.Kalmar::index_impl"** %this.addr.i, align 8
  %2 = bitcast %"struct.Kalmar::index_impl"* %this1.i to %"class.Kalmar::__index_leaf"*
  %3 = load i32, i32* %__t.addr.i, align 4
  store %"class.Kalmar::__index_leaf"* %2, %"class.Kalmar::__index_leaf"** %this.addr.i.i, align 8
  store i32 %3, i32* %__t.addr.i.i, align 4
  %this1.i.i = load %"class.Kalmar::__index_leaf"*, %"class.Kalmar::__index_leaf"** %this.addr.i.i, align 8
  %4 = load i32, i32* %__t.addr.i.i, align 4
  %__idx.i.i = getelementptr inbounds %"class.Kalmar::__index_leaf", %"class.Kalmar::__index_leaf"* %this1.i.i, i32 0, i32 0
  %5 = load i32, i32* %__idx.i.i, align 4
  %add.i.i = add nsw i32 %5, %4
  store i32 %add.i.i, i32* %__idx.i.i, align 4
  %6 = bitcast %"class.Kalmar::__index_leaf"* %agg.tmp.i to i8*
  %7 = bitcast %"class.Kalmar::__index_leaf"* %this1.i.i to i8*
  call void @llvm.memcpy.p0i8.p0i8.i64(i8* %6, i8* %7, i64 8, i32 4, i1 false) #3
  %8 = bitcast %"class.Kalmar::__index_leaf"* %agg.tmp.i to i64*
  %9 = load i64, i64* %8, align 4
  %10 = bitcast %"class.Kalmar::__index_leaf"* %1 to i64*
  store i64 %9, i64* %10, align 4
  store %"struct.Kalmar::index_impl"* %this1.i, %"struct.Kalmar::index_impl"** %this.addr.i2.i, align 8
  %this1.i3.i = load %"struct.Kalmar::index_impl"*, %"struct.Kalmar::index_impl"** %this.addr.i2.i, align 8
  ret %"class.Kalmar::index"* %this1
}

; Function Attrs: alwaysinline uwtable
define weak_odr void @_ZN6Kalmar5indexILi1EEppEi(%"class.Kalmar::index"* noalias sret %agg.result, %"class.Kalmar::index"* %this, i32) #4 align 2 {
  %2 = alloca %"class.Kalmar::__index_leaf", align 4
  %this.addr.i2.i = alloca %"struct.Kalmar::index_impl"*, align 8
  %this.addr.i.i2 = alloca %"class.Kalmar::__index_leaf"*, align 8
  %__t.addr.i.i = alloca i32, align 4
  %this.addr.i3 = alloca %"struct.Kalmar::index_impl"*, align 8
  %__t.addr.i = alloca i32, align 4
  %agg.tmp.i = alloca %"class.Kalmar::__index_leaf", align 4
  %this.addr.i.i.i.i.i = alloca %"class.Kalmar::__index_leaf"*, align 8
  %__t.addr.i.i.i.i.i = alloca i32, align 4
  %this.addr.i2.i.i.i = alloca %"struct.Kalmar::index_impl"*, align 8
  %component.addr.i.i.i.i = alloca i32, align 4
  %this.addr.i.i.i.i = alloca %"class.Kalmar::__index_leaf"*, align 8
  %this.addr.i.i.i = alloca %"struct.Kalmar::index_impl"*, align 8
  %other.addr.i.i.i = alloca %"struct.Kalmar::index_impl"*, align 8
  %this.addr.i.i = alloca %"class.Kalmar::index"*, align 8
  %other.addr.i.i = alloca %"class.Kalmar::index"*, align 8
  %this.addr.i = alloca %"class.Kalmar::index"*, align 8
  %other.addr.i = alloca %"class.Kalmar::index"*, align 8
  %this.addr = alloca %"class.Kalmar::index"*, align 8
  %.addr = alloca i32, align 4
  store %"class.Kalmar::index"* %this, %"class.Kalmar::index"** %this.addr, align 8
  store i32 %0, i32* %.addr, align 4
  %this1 = load %"class.Kalmar::index"*, %"class.Kalmar::index"** %this.addr, align 8
  store %"class.Kalmar::index"* %agg.result, %"class.Kalmar::index"** %this.addr.i, align 8
  store %"class.Kalmar::index"* %this1, %"class.Kalmar::index"** %other.addr.i, align 8
  %this1.i = load %"class.Kalmar::index"*, %"class.Kalmar::index"** %this.addr.i, align 8
  %3 = load %"class.Kalmar::index"*, %"class.Kalmar::index"** %other.addr.i, align 8
  store %"class.Kalmar::index"* %this1.i, %"class.Kalmar::index"** %this.addr.i.i, align 8
  store %"class.Kalmar::index"* %3, %"class.Kalmar::index"** %other.addr.i.i, align 8
  %this1.i.i = load %"class.Kalmar::index"*, %"class.Kalmar::index"** %this.addr.i.i, align 8
  %base_.i.i = getelementptr inbounds %"class.Kalmar::index", %"class.Kalmar::index"* %this1.i.i, i32 0, i32 0
  %4 = load %"class.Kalmar::index"*, %"class.Kalmar::index"** %other.addr.i.i, align 8
  %base_2.i.i = getelementptr inbounds %"class.Kalmar::index", %"class.Kalmar::index"* %4, i32 0, i32 0
  store %"struct.Kalmar::index_impl"* %base_.i.i, %"struct.Kalmar::index_impl"** %this.addr.i.i.i, align 8
  store %"struct.Kalmar::index_impl"* %base_2.i.i, %"struct.Kalmar::index_impl"** %other.addr.i.i.i, align 8
  %this1.i.i.i = load %"struct.Kalmar::index_impl"*, %"struct.Kalmar::index_impl"** %this.addr.i.i.i, align 8
  %5 = load %"struct.Kalmar::index_impl"*, %"struct.Kalmar::index_impl"** %other.addr.i.i.i, align 8
  %6 = bitcast %"struct.Kalmar::index_impl"* %5 to %"class.Kalmar::__index_leaf"*
  store %"class.Kalmar::__index_leaf"* %6, %"class.Kalmar::__index_leaf"** %this.addr.i.i.i.i, align 8
  %this1.i.i.i.i = load %"class.Kalmar::__index_leaf"*, %"class.Kalmar::__index_leaf"** %this.addr.i.i.i.i, align 8
  %__idx.i.i.i.i = getelementptr inbounds %"class.Kalmar::__index_leaf", %"class.Kalmar::__index_leaf"* %this1.i.i.i.i, i32 0, i32 0
  %7 = load i32, i32* %__idx.i.i.i.i, align 4
  store %"struct.Kalmar::index_impl"* %this1.i.i.i, %"struct.Kalmar::index_impl"** %this.addr.i2.i.i.i, align 8
  store i32 %7, i32* %component.addr.i.i.i.i, align 4
  %this1.i3.i.i.i = load %"struct.Kalmar::index_impl"*, %"struct.Kalmar::index_impl"** %this.addr.i2.i.i.i, align 8
  %8 = bitcast %"struct.Kalmar::index_impl"* %this1.i3.i.i.i to %"class.Kalmar::__index_leaf"*
  %9 = load i32, i32* %component.addr.i.i.i.i, align 4
  store %"class.Kalmar::__index_leaf"* %8, %"class.Kalmar::__index_leaf"** %this.addr.i.i.i.i.i, align 8
  store i32 %9, i32* %__t.addr.i.i.i.i.i, align 4
  %this1.i.i.i.i.i = load %"class.Kalmar::__index_leaf"*, %"class.Kalmar::__index_leaf"** %this.addr.i.i.i.i.i, align 8
  %__idx.i.i.i.i.i = getelementptr inbounds %"class.Kalmar::__index_leaf", %"class.Kalmar::__index_leaf"* %this1.i.i.i.i.i, i32 0, i32 0
  %10 = load i32, i32* %__t.addr.i.i.i.i.i, align 4
  store i32 %10, i32* %__idx.i.i.i.i.i, align 4
  %base_ = getelementptr inbounds %"class.Kalmar::index", %"class.Kalmar::index"* %this1, i32 0, i32 0
  store %"struct.Kalmar::index_impl"* %base_, %"struct.Kalmar::index_impl"** %this.addr.i3, align 8
  store i32 1, i32* %__t.addr.i, align 4
  %this1.i4 = load %"struct.Kalmar::index_impl"*, %"struct.Kalmar::index_impl"** %this.addr.i3, align 8
  %11 = bitcast %"struct.Kalmar::index_impl"* %this1.i4 to %"class.Kalmar::__index_leaf"*
  %12 = load i32, i32* %__t.addr.i, align 4
  store %"class.Kalmar::__index_leaf"* %11, %"class.Kalmar::__index_leaf"** %this.addr.i.i2, align 8
  store i32 %12, i32* %__t.addr.i.i, align 4
  %this1.i.i5 = load %"class.Kalmar::__index_leaf"*, %"class.Kalmar::__index_leaf"** %this.addr.i.i2, align 8
  %13 = load i32, i32* %__t.addr.i.i, align 4
  %__idx.i.i = getelementptr inbounds %"class.Kalmar::__index_leaf", %"class.Kalmar::__index_leaf"* %this1.i.i5, i32 0, i32 0
  %14 = load i32, i32* %__idx.i.i, align 4
  %add.i.i = add nsw i32 %14, %13
  store i32 %add.i.i, i32* %__idx.i.i, align 4
  %15 = bitcast %"class.Kalmar::__index_leaf"* %agg.tmp.i to i8*
  %16 = bitcast %"class.Kalmar::__index_leaf"* %this1.i.i5 to i8*
  call void @llvm.memcpy.p0i8.p0i8.i64(i8* %15, i8* %16, i64 8, i32 4, i1 false) #3
  %17 = bitcast %"class.Kalmar::__index_leaf"* %agg.tmp.i to i64*
  %18 = load i64, i64* %17, align 4
  %19 = bitcast %"class.Kalmar::__index_leaf"* %2 to i64*
  store i64 %18, i64* %19, align 4
  store %"struct.Kalmar::index_impl"* %this1.i4, %"struct.Kalmar::index_impl"** %this.addr.i2.i, align 8
  %this1.i3.i = load %"struct.Kalmar::index_impl"*, %"struct.Kalmar::index_impl"** %this.addr.i2.i, align 8
  ret void
}

; Function Attrs: alwaysinline uwtable
define weak_odr dereferenceable(8) %"class.Kalmar::index"* @_ZN6Kalmar5indexILi1EEmmEv(%"class.Kalmar::index"* %this) #4 align 2 {
  %1 = alloca %"class.Kalmar::__index_leaf", align 4
  %this.addr.i2.i = alloca %"struct.Kalmar::index_impl"*, align 8
  %this.addr.i.i = alloca %"class.Kalmar::__index_leaf"*, align 8
  %__t.addr.i.i = alloca i32, align 4
  %this.addr.i = alloca %"struct.Kalmar::index_impl"*, align 8
  %__t.addr.i = alloca i32, align 4
  %agg.tmp.i = alloca %"class.Kalmar::__index_leaf", align 4
  %this.addr = alloca %"class.Kalmar::index"*, align 8
  store %"class.Kalmar::index"* %this, %"class.Kalmar::index"** %this.addr, align 8
  %this1 = load %"class.Kalmar::index"*, %"class.Kalmar::index"** %this.addr, align 8
  %base_ = getelementptr inbounds %"class.Kalmar::index", %"class.Kalmar::index"* %this1, i32 0, i32 0
  store %"struct.Kalmar::index_impl"* %base_, %"struct.Kalmar::index_impl"** %this.addr.i, align 8
  store i32 1, i32* %__t.addr.i, align 4
  %this1.i = load %"struct.Kalmar::index_impl"*, %"struct.Kalmar::index_impl"** %this.addr.i, align 8
  %2 = bitcast %"struct.Kalmar::index_impl"* %this1.i to %"class.Kalmar::__index_leaf"*
  %3 = load i32, i32* %__t.addr.i, align 4
  store %"class.Kalmar::__index_leaf"* %2, %"class.Kalmar::__index_leaf"** %this.addr.i.i, align 8
  store i32 %3, i32* %__t.addr.i.i, align 4
  %this1.i.i = load %"class.Kalmar::__index_leaf"*, %"class.Kalmar::__index_leaf"** %this.addr.i.i, align 8
  %4 = load i32, i32* %__t.addr.i.i, align 4
  %__idx.i.i = getelementptr inbounds %"class.Kalmar::__index_leaf", %"class.Kalmar::__index_leaf"* %this1.i.i, i32 0, i32 0
  %5 = load i32, i32* %__idx.i.i, align 4
  %sub.i.i = sub nsw i32 %5, %4
  store i32 %sub.i.i, i32* %__idx.i.i, align 4
  %6 = bitcast %"class.Kalmar::__index_leaf"* %agg.tmp.i to i8*
  %7 = bitcast %"class.Kalmar::__index_leaf"* %this1.i.i to i8*
  call void @llvm.memcpy.p0i8.p0i8.i64(i8* %6, i8* %7, i64 8, i32 4, i1 false) #3
  %8 = bitcast %"class.Kalmar::__index_leaf"* %agg.tmp.i to i64*
  %9 = load i64, i64* %8, align 4
  %10 = bitcast %"class.Kalmar::__index_leaf"* %1 to i64*
  store i64 %9, i64* %10, align 4
  store %"struct.Kalmar::index_impl"* %this1.i, %"struct.Kalmar::index_impl"** %this.addr.i2.i, align 8
  %this1.i3.i = load %"struct.Kalmar::index_impl"*, %"struct.Kalmar::index_impl"** %this.addr.i2.i, align 8
  ret %"class.Kalmar::index"* %this1
}

; Function Attrs: alwaysinline uwtable
define weak_odr void @_ZN6Kalmar5indexILi1EEmmEi(%"class.Kalmar::index"* noalias sret %agg.result, %"class.Kalmar::index"* %this, i32) #4 align 2 {
  %2 = alloca %"class.Kalmar::__index_leaf", align 4
  %this.addr.i2.i = alloca %"struct.Kalmar::index_impl"*, align 8
  %this.addr.i.i2 = alloca %"class.Kalmar::__index_leaf"*, align 8
  %__t.addr.i.i = alloca i32, align 4
  %this.addr.i3 = alloca %"struct.Kalmar::index_impl"*, align 8
  %__t.addr.i = alloca i32, align 4
  %agg.tmp.i = alloca %"class.Kalmar::__index_leaf", align 4
  %this.addr.i.i.i.i.i = alloca %"class.Kalmar::__index_leaf"*, align 8
  %__t.addr.i.i.i.i.i = alloca i32, align 4
  %this.addr.i2.i.i.i = alloca %"struct.Kalmar::index_impl"*, align 8
  %component.addr.i.i.i.i = alloca i32, align 4
  %this.addr.i.i.i.i = alloca %"class.Kalmar::__index_leaf"*, align 8
  %this.addr.i.i.i = alloca %"struct.Kalmar::index_impl"*, align 8
  %other.addr.i.i.i = alloca %"struct.Kalmar::index_impl"*, align 8
  %this.addr.i.i = alloca %"class.Kalmar::index"*, align 8
  %other.addr.i.i = alloca %"class.Kalmar::index"*, align 8
  %this.addr.i = alloca %"class.Kalmar::index"*, align 8
  %other.addr.i = alloca %"class.Kalmar::index"*, align 8
  %this.addr = alloca %"class.Kalmar::index"*, align 8
  %.addr = alloca i32, align 4
  store %"class.Kalmar::index"* %this, %"class.Kalmar::index"** %this.addr, align 8
  store i32 %0, i32* %.addr, align 4
  %this1 = load %"class.Kalmar::index"*, %"class.Kalmar::index"** %this.addr, align 8
  store %"class.Kalmar::index"* %agg.result, %"class.Kalmar::index"** %this.addr.i, align 8
  store %"class.Kalmar::index"* %this1, %"class.Kalmar::index"** %other.addr.i, align 8
  %this1.i = load %"class.Kalmar::index"*, %"class.Kalmar::index"** %this.addr.i, align 8
  %3 = load %"class.Kalmar::index"*, %"class.Kalmar::index"** %other.addr.i, align 8
  store %"class.Kalmar::index"* %this1.i, %"class.Kalmar::index"** %this.addr.i.i, align 8
  store %"class.Kalmar::index"* %3, %"class.Kalmar::index"** %other.addr.i.i, align 8
  %this1.i.i = load %"class.Kalmar::index"*, %"class.Kalmar::index"** %this.addr.i.i, align 8
  %base_.i.i = getelementptr inbounds %"class.Kalmar::index", %"class.Kalmar::index"* %this1.i.i, i32 0, i32 0
  %4 = load %"class.Kalmar::index"*, %"class.Kalmar::index"** %other.addr.i.i, align 8
  %base_2.i.i = getelementptr inbounds %"class.Kalmar::index", %"class.Kalmar::index"* %4, i32 0, i32 0
  store %"struct.Kalmar::index_impl"* %base_.i.i, %"struct.Kalmar::index_impl"** %this.addr.i.i.i, align 8
  store %"struct.Kalmar::index_impl"* %base_2.i.i, %"struct.Kalmar::index_impl"** %other.addr.i.i.i, align 8
  %this1.i.i.i = load %"struct.Kalmar::index_impl"*, %"struct.Kalmar::index_impl"** %this.addr.i.i.i, align 8
  %5 = load %"struct.Kalmar::index_impl"*, %"struct.Kalmar::index_impl"** %other.addr.i.i.i, align 8
  %6 = bitcast %"struct.Kalmar::index_impl"* %5 to %"class.Kalmar::__index_leaf"*
  store %"class.Kalmar::__index_leaf"* %6, %"class.Kalmar::__index_leaf"** %this.addr.i.i.i.i, align 8
  %this1.i.i.i.i = load %"class.Kalmar::__index_leaf"*, %"class.Kalmar::__index_leaf"** %this.addr.i.i.i.i, align 8
  %__idx.i.i.i.i = getelementptr inbounds %"class.Kalmar::__index_leaf", %"class.Kalmar::__index_leaf"* %this1.i.i.i.i, i32 0, i32 0
  %7 = load i32, i32* %__idx.i.i.i.i, align 4
  store %"struct.Kalmar::index_impl"* %this1.i.i.i, %"struct.Kalmar::index_impl"** %this.addr.i2.i.i.i, align 8
  store i32 %7, i32* %component.addr.i.i.i.i, align 4
  %this1.i3.i.i.i = load %"struct.Kalmar::index_impl"*, %"struct.Kalmar::index_impl"** %this.addr.i2.i.i.i, align 8
  %8 = bitcast %"struct.Kalmar::index_impl"* %this1.i3.i.i.i to %"class.Kalmar::__index_leaf"*
  %9 = load i32, i32* %component.addr.i.i.i.i, align 4
  store %"class.Kalmar::__index_leaf"* %8, %"class.Kalmar::__index_leaf"** %this.addr.i.i.i.i.i, align 8
  store i32 %9, i32* %__t.addr.i.i.i.i.i, align 4
  %this1.i.i.i.i.i = load %"class.Kalmar::__index_leaf"*, %"class.Kalmar::__index_leaf"** %this.addr.i.i.i.i.i, align 8
  %__idx.i.i.i.i.i = getelementptr inbounds %"class.Kalmar::__index_leaf", %"class.Kalmar::__index_leaf"* %this1.i.i.i.i.i, i32 0, i32 0
  %10 = load i32, i32* %__t.addr.i.i.i.i.i, align 4
  store i32 %10, i32* %__idx.i.i.i.i.i, align 4
  %base_ = getelementptr inbounds %"class.Kalmar::index", %"class.Kalmar::index"* %this1, i32 0, i32 0
  store %"struct.Kalmar::index_impl"* %base_, %"struct.Kalmar::index_impl"** %this.addr.i3, align 8
  store i32 1, i32* %__t.addr.i, align 4
  %this1.i4 = load %"struct.Kalmar::index_impl"*, %"struct.Kalmar::index_impl"** %this.addr.i3, align 8
  %11 = bitcast %"struct.Kalmar::index_impl"* %this1.i4 to %"class.Kalmar::__index_leaf"*
  %12 = load i32, i32* %__t.addr.i, align 4
  store %"class.Kalmar::__index_leaf"* %11, %"class.Kalmar::__index_leaf"** %this.addr.i.i2, align 8
  store i32 %12, i32* %__t.addr.i.i, align 4
  %this1.i.i5 = load %"class.Kalmar::__index_leaf"*, %"class.Kalmar::__index_leaf"** %this.addr.i.i2, align 8
  %13 = load i32, i32* %__t.addr.i.i, align 4
  %__idx.i.i = getelementptr inbounds %"class.Kalmar::__index_leaf", %"class.Kalmar::__index_leaf"* %this1.i.i5, i32 0, i32 0
  %14 = load i32, i32* %__idx.i.i, align 4
  %sub.i.i = sub nsw i32 %14, %13
  store i32 %sub.i.i, i32* %__idx.i.i, align 4
  %15 = bitcast %"class.Kalmar::__index_leaf"* %agg.tmp.i to i8*
  %16 = bitcast %"class.Kalmar::__index_leaf"* %this1.i.i5 to i8*
  call void @llvm.memcpy.p0i8.p0i8.i64(i8* %15, i8* %16, i64 8, i32 4, i1 false) #3
  %17 = bitcast %"class.Kalmar::__index_leaf"* %agg.tmp.i to i64*
  %18 = load i64, i64* %17, align 4
  %19 = bitcast %"class.Kalmar::__index_leaf"* %2 to i64*
  store i64 %18, i64* %19, align 4
  store %"struct.Kalmar::index_impl"* %this1.i4, %"struct.Kalmar::index_impl"** %this.addr.i2.i, align 8
  %this1.i3.i = load %"struct.Kalmar::index_impl"*, %"struct.Kalmar::index_impl"** %this.addr.i2.i, align 8
  ret void
}

; Function Attrs: alwaysinline uwtable
define weak_odr void @_ZN6Kalmar5indexILi2EEC2Ev(%"class.Kalmar::index.0"* %this) unnamed_addr #4 align 2 {
  %this.addr.i2.i = alloca %"class.Kalmar::__index_leaf.2"*, align 8
  %__t.addr.i3.i = alloca i32, align 4
  %this.addr.i.i = alloca %"class.Kalmar::__index_leaf"*, align 8
  %__t.addr.i.i = alloca i32, align 4
  %this.addr.i = alloca %"struct.Kalmar::index_impl.1"*, align 8
  %this.addr = alloca %"class.Kalmar::index.0"*, align 8
  store %"class.Kalmar::index.0"* %this, %"class.Kalmar::index.0"** %this.addr, align 8
  %this1 = load %"class.Kalmar::index.0"*, %"class.Kalmar::index.0"** %this.addr, align 8
  %base_ = getelementptr inbounds %"class.Kalmar::index.0", %"class.Kalmar::index.0"* %this1, i32 0, i32 0
  store %"struct.Kalmar::index_impl.1"* %base_, %"struct.Kalmar::index_impl.1"** %this.addr.i, align 8
  %this1.i = load %"struct.Kalmar::index_impl.1"*, %"struct.Kalmar::index_impl.1"** %this.addr.i, align 8
  %1 = bitcast %"struct.Kalmar::index_impl.1"* %this1.i to %"class.Kalmar::__index_leaf"*
  store %"class.Kalmar::__index_leaf"* %1, %"class.Kalmar::__index_leaf"** %this.addr.i.i, align 8
  store i32 0, i32* %__t.addr.i.i, align 4
  %this1.i.i = load %"class.Kalmar::__index_leaf"*, %"class.Kalmar::__index_leaf"** %this.addr.i.i, align 8
  %__idx.i.i = getelementptr inbounds %"class.Kalmar::__index_leaf", %"class.Kalmar::__index_leaf"* %this1.i.i, i32 0, i32 0
  %2 = load i32, i32* %__t.addr.i.i, align 4
  store i32 %2, i32* %__idx.i.i, align 4
  %3 = bitcast %"struct.Kalmar::index_impl.1"* %this1.i to i8*
  %4 = getelementptr inbounds i8, i8* %3, i64 8
  %5 = bitcast i8* %4 to %"class.Kalmar::__index_leaf.2"*
  store %"class.Kalmar::__index_leaf.2"* %5, %"class.Kalmar::__index_leaf.2"** %this.addr.i2.i, align 8
  store i32 0, i32* %__t.addr.i3.i, align 4
  %this1.i4.i = load %"class.Kalmar::__index_leaf.2"*, %"class.Kalmar::__index_leaf.2"** %this.addr.i2.i, align 8
  %__idx.i5.i = getelementptr inbounds %"class.Kalmar::__index_leaf.2", %"class.Kalmar::__index_leaf.2"* %this1.i4.i, i32 0, i32 0
  %6 = load i32, i32* %__t.addr.i3.i, align 4
  store i32 %6, i32* %__idx.i5.i, align 4
  ret void
}

; Function Attrs: alwaysinline uwtable
define weak_odr void @_ZN6Kalmar5indexILi2EEC1Ev(%"class.Kalmar::index.0"* %this) unnamed_addr #4 align 2 {
  %this.addr.i2.i.i = alloca %"class.Kalmar::__index_leaf.2"*, align 8
  %__t.addr.i3.i.i = alloca i32, align 4
  %this.addr.i.i.i = alloca %"class.Kalmar::__index_leaf"*, align 8
  %__t.addr.i.i.i = alloca i32, align 4
  %this.addr.i.i = alloca %"struct.Kalmar::index_impl.1"*, align 8
  %this.addr.i = alloca %"class.Kalmar::index.0"*, align 8
  %this.addr = alloca %"class.Kalmar::index.0"*, align 8
  store %"class.Kalmar::index.0"* %this, %"class.Kalmar::index.0"** %this.addr, align 8
  %this1 = load %"class.Kalmar::index.0"*, %"class.Kalmar::index.0"** %this.addr, align 8
  store %"class.Kalmar::index.0"* %this1, %"class.Kalmar::index.0"** %this.addr.i, align 8
  %this1.i = load %"class.Kalmar::index.0"*, %"class.Kalmar::index.0"** %this.addr.i, align 8
  %base_.i = getelementptr inbounds %"class.Kalmar::index.0", %"class.Kalmar::index.0"* %this1.i, i32 0, i32 0
  store %"struct.Kalmar::index_impl.1"* %base_.i, %"struct.Kalmar::index_impl.1"** %this.addr.i.i, align 8
  %this1.i.i = load %"struct.Kalmar::index_impl.1"*, %"struct.Kalmar::index_impl.1"** %this.addr.i.i, align 8
  %1 = bitcast %"struct.Kalmar::index_impl.1"* %this1.i.i to %"class.Kalmar::__index_leaf"*
  store %"class.Kalmar::__index_leaf"* %1, %"class.Kalmar::__index_leaf"** %this.addr.i.i.i, align 8
  store i32 0, i32* %__t.addr.i.i.i, align 4
  %this1.i.i.i = load %"class.Kalmar::__index_leaf"*, %"class.Kalmar::__index_leaf"** %this.addr.i.i.i, align 8
  %__idx.i.i.i = getelementptr inbounds %"class.Kalmar::__index_leaf", %"class.Kalmar::__index_leaf"* %this1.i.i.i, i32 0, i32 0
  %2 = load i32, i32* %__t.addr.i.i.i, align 4
  store i32 %2, i32* %__idx.i.i.i, align 4
  %3 = bitcast %"struct.Kalmar::index_impl.1"* %this1.i.i to i8*
  %4 = getelementptr inbounds i8, i8* %3, i64 8
  %5 = bitcast i8* %4 to %"class.Kalmar::__index_leaf.2"*
  store %"class.Kalmar::__index_leaf.2"* %5, %"class.Kalmar::__index_leaf.2"** %this.addr.i2.i.i, align 8
  store i32 0, i32* %__t.addr.i3.i.i, align 4
  %this1.i4.i.i = load %"class.Kalmar::__index_leaf.2"*, %"class.Kalmar::__index_leaf.2"** %this.addr.i2.i.i, align 8
  %__idx.i5.i.i = getelementptr inbounds %"class.Kalmar::__index_leaf.2", %"class.Kalmar::__index_leaf.2"* %this1.i4.i.i, i32 0, i32 0
  %6 = load i32, i32* %__t.addr.i3.i.i, align 4
  store i32 %6, i32* %__idx.i5.i.i, align 4
  ret void
}

; Function Attrs: alwaysinline uwtable
define weak_odr void @_ZN6Kalmar5indexILi2EEC2ERKS1_(%"class.Kalmar::index.0"* %this, %"class.Kalmar::index.0"* dereferenceable(16) %other) unnamed_addr #4 align 2 {
  %this.addr.i4.i = alloca %"class.Kalmar::__index_leaf.2"*, align 8
  %this.addr.i4.i.i = alloca %"class.Kalmar::__index_leaf.2"*, align 8
  %__t.addr.i5.i.i = alloca i32, align 4
  %this.addr.i.i.i = alloca %"class.Kalmar::__index_leaf"*, align 8
  %__t.addr.i.i.i = alloca i32, align 4
  %this.addr.i3.i = alloca %"struct.Kalmar::index_impl.1"*, align 8
  %__u.addr.i.i = alloca i32, align 4
  %__u.addr2.i.i = alloca i32, align 4
  %this.addr.i.i = alloca %"class.Kalmar::__index_leaf"*, align 8
  %this.addr.i = alloca %"struct.Kalmar::index_impl.1"*, align 8
  %other.addr.i = alloca %"struct.Kalmar::index_impl.1"*, align 8
  %this.addr = alloca %"class.Kalmar::index.0"*, align 8
  %other.addr = alloca %"class.Kalmar::index.0"*, align 8
  store %"class.Kalmar::index.0"* %this, %"class.Kalmar::index.0"** %this.addr, align 8
  store %"class.Kalmar::index.0"* %other, %"class.Kalmar::index.0"** %other.addr, align 8
  %this1 = load %"class.Kalmar::index.0"*, %"class.Kalmar::index.0"** %this.addr, align 8
  %base_ = getelementptr inbounds %"class.Kalmar::index.0", %"class.Kalmar::index.0"* %this1, i32 0, i32 0
  %1 = load %"class.Kalmar::index.0"*, %"class.Kalmar::index.0"** %other.addr, align 8
  %base_2 = getelementptr inbounds %"class.Kalmar::index.0", %"class.Kalmar::index.0"* %1, i32 0, i32 0
  store %"struct.Kalmar::index_impl.1"* %base_, %"struct.Kalmar::index_impl.1"** %this.addr.i, align 8
  store %"struct.Kalmar::index_impl.1"* %base_2, %"struct.Kalmar::index_impl.1"** %other.addr.i, align 8
  %this1.i = load %"struct.Kalmar::index_impl.1"*, %"struct.Kalmar::index_impl.1"** %this.addr.i, align 8
  %2 = load %"struct.Kalmar::index_impl.1"*, %"struct.Kalmar::index_impl.1"** %other.addr.i, align 8
  %3 = bitcast %"struct.Kalmar::index_impl.1"* %2 to %"class.Kalmar::__index_leaf"*
  store %"class.Kalmar::__index_leaf"* %3, %"class.Kalmar::__index_leaf"** %this.addr.i.i, align 8
  %this1.i.i = load %"class.Kalmar::__index_leaf"*, %"class.Kalmar::__index_leaf"** %this.addr.i.i, align 8
  %__idx.i.i = getelementptr inbounds %"class.Kalmar::__index_leaf", %"class.Kalmar::__index_leaf"* %this1.i.i, i32 0, i32 0
  %4 = load i32, i32* %__idx.i.i, align 4
  %5 = load %"struct.Kalmar::index_impl.1"*, %"struct.Kalmar::index_impl.1"** %other.addr.i, align 8
  %6 = bitcast %"struct.Kalmar::index_impl.1"* %5 to i8*
  %add.ptr.i = getelementptr inbounds i8, i8* %6, i64 8
  %7 = bitcast i8* %add.ptr.i to %"class.Kalmar::__index_leaf.2"*
  store %"class.Kalmar::__index_leaf.2"* %7, %"class.Kalmar::__index_leaf.2"** %this.addr.i4.i, align 8
  %this1.i5.i = load %"class.Kalmar::__index_leaf.2"*, %"class.Kalmar::__index_leaf.2"** %this.addr.i4.i, align 8
  %__idx.i6.i = getelementptr inbounds %"class.Kalmar::__index_leaf.2", %"class.Kalmar::__index_leaf.2"* %this1.i5.i, i32 0, i32 0
  %8 = load i32, i32* %__idx.i6.i, align 4
  store %"struct.Kalmar::index_impl.1"* %this1.i, %"struct.Kalmar::index_impl.1"** %this.addr.i3.i, align 8
  store i32 %4, i32* %__u.addr.i.i, align 4
  store i32 %8, i32* %__u.addr2.i.i, align 4
  %this3.i.i = load %"struct.Kalmar::index_impl.1"*, %"struct.Kalmar::index_impl.1"** %this.addr.i3.i, align 8
  %9 = bitcast %"struct.Kalmar::index_impl.1"* %this3.i.i to %"class.Kalmar::__index_leaf"*
  %10 = load i32, i32* %__u.addr.i.i, align 4
  store %"class.Kalmar::__index_leaf"* %9, %"class.Kalmar::__index_leaf"** %this.addr.i.i.i, align 8
  store i32 %10, i32* %__t.addr.i.i.i, align 4
  %this1.i.i.i = load %"class.Kalmar::__index_leaf"*, %"class.Kalmar::__index_leaf"** %this.addr.i.i.i, align 8
  %__idx.i.i.i = getelementptr inbounds %"class.Kalmar::__index_leaf", %"class.Kalmar::__index_leaf"* %this1.i.i.i, i32 0, i32 0
  %11 = load i32, i32* %__t.addr.i.i.i, align 4
  store i32 %11, i32* %__idx.i.i.i, align 4
  %12 = bitcast %"struct.Kalmar::index_impl.1"* %this3.i.i to i8*
  %13 = getelementptr inbounds i8, i8* %12, i64 8
  %14 = bitcast i8* %13 to %"class.Kalmar::__index_leaf.2"*
  %15 = load i32, i32* %__u.addr2.i.i, align 4
  store %"class.Kalmar::__index_leaf.2"* %14, %"class.Kalmar::__index_leaf.2"** %this.addr.i4.i.i, align 8
  store i32 %15, i32* %__t.addr.i5.i.i, align 4
  %this1.i6.i.i = load %"class.Kalmar::__index_leaf.2"*, %"class.Kalmar::__index_leaf.2"** %this.addr.i4.i.i, align 8
  %__idx.i7.i.i = getelementptr inbounds %"class.Kalmar::__index_leaf.2", %"class.Kalmar::__index_leaf.2"* %this1.i6.i.i, i32 0, i32 0
  %16 = load i32, i32* %__t.addr.i5.i.i, align 4
  store i32 %16, i32* %__idx.i7.i.i, align 4
  ret void
}

; Function Attrs: alwaysinline uwtable
define weak_odr void @_ZN6Kalmar5indexILi2EEC1ERKS1_(%"class.Kalmar::index.0"* %this, %"class.Kalmar::index.0"* dereferenceable(16) %other) unnamed_addr #4 align 2 {
  %this.addr.i4.i.i = alloca %"class.Kalmar::__index_leaf.2"*, align 8
  %this.addr.i4.i.i.i = alloca %"class.Kalmar::__index_leaf.2"*, align 8
  %__t.addr.i5.i.i.i = alloca i32, align 4
  %this.addr.i.i.i.i = alloca %"class.Kalmar::__index_leaf"*, align 8
  %__t.addr.i.i.i.i = alloca i32, align 4
  %this.addr.i3.i.i = alloca %"struct.Kalmar::index_impl.1"*, align 8
  %__u.addr.i.i.i = alloca i32, align 4
  %__u.addr2.i.i.i = alloca i32, align 4
  %this.addr.i.i.i = alloca %"class.Kalmar::__index_leaf"*, align 8
  %this.addr.i.i = alloca %"struct.Kalmar::index_impl.1"*, align 8
  %other.addr.i.i = alloca %"struct.Kalmar::index_impl.1"*, align 8
  %this.addr.i = alloca %"class.Kalmar::index.0"*, align 8
  %other.addr.i = alloca %"class.Kalmar::index.0"*, align 8
  %this.addr = alloca %"class.Kalmar::index.0"*, align 8
  %other.addr = alloca %"class.Kalmar::index.0"*, align 8
  store %"class.Kalmar::index.0"* %this, %"class.Kalmar::index.0"** %this.addr, align 8
  store %"class.Kalmar::index.0"* %other, %"class.Kalmar::index.0"** %other.addr, align 8
  %this1 = load %"class.Kalmar::index.0"*, %"class.Kalmar::index.0"** %this.addr, align 8
  %1 = load %"class.Kalmar::index.0"*, %"class.Kalmar::index.0"** %other.addr, align 8
  store %"class.Kalmar::index.0"* %this1, %"class.Kalmar::index.0"** %this.addr.i, align 8
  store %"class.Kalmar::index.0"* %1, %"class.Kalmar::index.0"** %other.addr.i, align 8
  %this1.i = load %"class.Kalmar::index.0"*, %"class.Kalmar::index.0"** %this.addr.i, align 8
  %base_.i = getelementptr inbounds %"class.Kalmar::index.0", %"class.Kalmar::index.0"* %this1.i, i32 0, i32 0
  %2 = load %"class.Kalmar::index.0"*, %"class.Kalmar::index.0"** %other.addr.i, align 8
  %base_2.i = getelementptr inbounds %"class.Kalmar::index.0", %"class.Kalmar::index.0"* %2, i32 0, i32 0
  store %"struct.Kalmar::index_impl.1"* %base_.i, %"struct.Kalmar::index_impl.1"** %this.addr.i.i, align 8
  store %"struct.Kalmar::index_impl.1"* %base_2.i, %"struct.Kalmar::index_impl.1"** %other.addr.i.i, align 8
  %this1.i.i = load %"struct.Kalmar::index_impl.1"*, %"struct.Kalmar::index_impl.1"** %this.addr.i.i, align 8
  %3 = load %"struct.Kalmar::index_impl.1"*, %"struct.Kalmar::index_impl.1"** %other.addr.i.i, align 8
  %4 = bitcast %"struct.Kalmar::index_impl.1"* %3 to %"class.Kalmar::__index_leaf"*
  store %"class.Kalmar::__index_leaf"* %4, %"class.Kalmar::__index_leaf"** %this.addr.i.i.i, align 8
  %this1.i.i.i = load %"class.Kalmar::__index_leaf"*, %"class.Kalmar::__index_leaf"** %this.addr.i.i.i, align 8
  %__idx.i.i.i = getelementptr inbounds %"class.Kalmar::__index_leaf", %"class.Kalmar::__index_leaf"* %this1.i.i.i, i32 0, i32 0
  %5 = load i32, i32* %__idx.i.i.i, align 4
  %6 = load %"struct.Kalmar::index_impl.1"*, %"struct.Kalmar::index_impl.1"** %other.addr.i.i, align 8
  %7 = bitcast %"struct.Kalmar::index_impl.1"* %6 to i8*
  %add.ptr.i.i = getelementptr inbounds i8, i8* %7, i64 8
  %8 = bitcast i8* %add.ptr.i.i to %"class.Kalmar::__index_leaf.2"*
  store %"class.Kalmar::__index_leaf.2"* %8, %"class.Kalmar::__index_leaf.2"** %this.addr.i4.i.i, align 8
  %this1.i5.i.i = load %"class.Kalmar::__index_leaf.2"*, %"class.Kalmar::__index_leaf.2"** %this.addr.i4.i.i, align 8
  %__idx.i6.i.i = getelementptr inbounds %"class.Kalmar::__index_leaf.2", %"class.Kalmar::__index_leaf.2"* %this1.i5.i.i, i32 0, i32 0
  %9 = load i32, i32* %__idx.i6.i.i, align 4
  store %"struct.Kalmar::index_impl.1"* %this1.i.i, %"struct.Kalmar::index_impl.1"** %this.addr.i3.i.i, align 8
  store i32 %5, i32* %__u.addr.i.i.i, align 4
  store i32 %9, i32* %__u.addr2.i.i.i, align 4
  %this3.i.i.i = load %"struct.Kalmar::index_impl.1"*, %"struct.Kalmar::index_impl.1"** %this.addr.i3.i.i, align 8
  %10 = bitcast %"struct.Kalmar::index_impl.1"* %this3.i.i.i to %"class.Kalmar::__index_leaf"*
  %11 = load i32, i32* %__u.addr.i.i.i, align 4
  store %"class.Kalmar::__index_leaf"* %10, %"class.Kalmar::__index_leaf"** %this.addr.i.i.i.i, align 8
  store i32 %11, i32* %__t.addr.i.i.i.i, align 4
  %this1.i.i.i.i = load %"class.Kalmar::__index_leaf"*, %"class.Kalmar::__index_leaf"** %this.addr.i.i.i.i, align 8
  %__idx.i.i.i.i = getelementptr inbounds %"class.Kalmar::__index_leaf", %"class.Kalmar::__index_leaf"* %this1.i.i.i.i, i32 0, i32 0
  %12 = load i32, i32* %__t.addr.i.i.i.i, align 4
  store i32 %12, i32* %__idx.i.i.i.i, align 4
  %13 = bitcast %"struct.Kalmar::index_impl.1"* %this3.i.i.i to i8*
  %14 = getelementptr inbounds i8, i8* %13, i64 8
  %15 = bitcast i8* %14 to %"class.Kalmar::__index_leaf.2"*
  %16 = load i32, i32* %__u.addr2.i.i.i, align 4
  store %"class.Kalmar::__index_leaf.2"* %15, %"class.Kalmar::__index_leaf.2"** %this.addr.i4.i.i.i, align 8
  store i32 %16, i32* %__t.addr.i5.i.i.i, align 4
  %this1.i6.i.i.i = load %"class.Kalmar::__index_leaf.2"*, %"class.Kalmar::__index_leaf.2"** %this.addr.i4.i.i.i, align 8
  %__idx.i7.i.i.i = getelementptr inbounds %"class.Kalmar::__index_leaf.2", %"class.Kalmar::__index_leaf.2"* %this1.i6.i.i.i, i32 0, i32 0
  %17 = load i32, i32* %__t.addr.i5.i.i.i, align 4
  store i32 %17, i32* %__idx.i7.i.i.i, align 4
  ret void
}

; Function Attrs: alwaysinline uwtable
define weak_odr void @_ZN6Kalmar5indexILi2EEC2Ei(%"class.Kalmar::index.0"* %this, i32 %i0) unnamed_addr #4 align 2 {
  %this.addr.i2.i = alloca %"class.Kalmar::__index_leaf.2"*, align 8
  %__t.addr.i3.i = alloca i32, align 4
  %this.addr.i.i = alloca %"class.Kalmar::__index_leaf"*, align 8
  %__t.addr.i.i = alloca i32, align 4
  %this.addr.i = alloca %"struct.Kalmar::index_impl.1"*, align 8
  %component.addr.i = alloca i32, align 4
  %this.addr = alloca %"class.Kalmar::index.0"*, align 8
  %i0.addr = alloca i32, align 4
  store %"class.Kalmar::index.0"* %this, %"class.Kalmar::index.0"** %this.addr, align 8
  store i32 %i0, i32* %i0.addr, align 4
  %this1 = load %"class.Kalmar::index.0"*, %"class.Kalmar::index.0"** %this.addr, align 8
  %base_ = getelementptr inbounds %"class.Kalmar::index.0", %"class.Kalmar::index.0"* %this1, i32 0, i32 0
  %1 = load i32, i32* %i0.addr, align 4
  store %"struct.Kalmar::index_impl.1"* %base_, %"struct.Kalmar::index_impl.1"** %this.addr.i, align 8
  store i32 %1, i32* %component.addr.i, align 4
  %this1.i = load %"struct.Kalmar::index_impl.1"*, %"struct.Kalmar::index_impl.1"** %this.addr.i, align 8
  %2 = bitcast %"struct.Kalmar::index_impl.1"* %this1.i to %"class.Kalmar::__index_leaf"*
  %3 = load i32, i32* %component.addr.i, align 4
  store %"class.Kalmar::__index_leaf"* %2, %"class.Kalmar::__index_leaf"** %this.addr.i.i, align 8
  store i32 %3, i32* %__t.addr.i.i, align 4
  %this1.i.i = load %"class.Kalmar::__index_leaf"*, %"class.Kalmar::__index_leaf"** %this.addr.i.i, align 8
  %__idx.i.i = getelementptr inbounds %"class.Kalmar::__index_leaf", %"class.Kalmar::__index_leaf"* %this1.i.i, i32 0, i32 0
  %4 = load i32, i32* %__t.addr.i.i, align 4
  store i32 %4, i32* %__idx.i.i, align 4
  %5 = bitcast %"struct.Kalmar::index_impl.1"* %this1.i to i8*
  %6 = getelementptr inbounds i8, i8* %5, i64 8
  %7 = bitcast i8* %6 to %"class.Kalmar::__index_leaf.2"*
  %8 = load i32, i32* %component.addr.i, align 4
  store %"class.Kalmar::__index_leaf.2"* %7, %"class.Kalmar::__index_leaf.2"** %this.addr.i2.i, align 8
  store i32 %8, i32* %__t.addr.i3.i, align 4
  %this1.i4.i = load %"class.Kalmar::__index_leaf.2"*, %"class.Kalmar::__index_leaf.2"** %this.addr.i2.i, align 8
  %__idx.i5.i = getelementptr inbounds %"class.Kalmar::__index_leaf.2", %"class.Kalmar::__index_leaf.2"* %this1.i4.i, i32 0, i32 0
  %9 = load i32, i32* %__t.addr.i3.i, align 4
  store i32 %9, i32* %__idx.i5.i, align 4
  ret void
}

; Function Attrs: alwaysinline uwtable
define weak_odr void @_ZN6Kalmar5indexILi2EEC1Ei(%"class.Kalmar::index.0"* %this, i32 %i0) unnamed_addr #4 align 2 {
  %this.addr.i2.i.i = alloca %"class.Kalmar::__index_leaf.2"*, align 8
  %__t.addr.i3.i.i = alloca i32, align 4
  %this.addr.i.i.i = alloca %"class.Kalmar::__index_leaf"*, align 8
  %__t.addr.i.i.i = alloca i32, align 4
  %this.addr.i.i = alloca %"struct.Kalmar::index_impl.1"*, align 8
  %component.addr.i.i = alloca i32, align 4
  %this.addr.i = alloca %"class.Kalmar::index.0"*, align 8
  %i0.addr.i = alloca i32, align 4
  %this.addr = alloca %"class.Kalmar::index.0"*, align 8
  %i0.addr = alloca i32, align 4
  store %"class.Kalmar::index.0"* %this, %"class.Kalmar::index.0"** %this.addr, align 8
  store i32 %i0, i32* %i0.addr, align 4
  %this1 = load %"class.Kalmar::index.0"*, %"class.Kalmar::index.0"** %this.addr, align 8
  %1 = load i32, i32* %i0.addr, align 4
  store %"class.Kalmar::index.0"* %this1, %"class.Kalmar::index.0"** %this.addr.i, align 8
  store i32 %1, i32* %i0.addr.i, align 4
  %this1.i = load %"class.Kalmar::index.0"*, %"class.Kalmar::index.0"** %this.addr.i, align 8
  %base_.i = getelementptr inbounds %"class.Kalmar::index.0", %"class.Kalmar::index.0"* %this1.i, i32 0, i32 0
  %2 = load i32, i32* %i0.addr.i, align 4
  store %"struct.Kalmar::index_impl.1"* %base_.i, %"struct.Kalmar::index_impl.1"** %this.addr.i.i, align 8
  store i32 %2, i32* %component.addr.i.i, align 4
  %this1.i.i = load %"struct.Kalmar::index_impl.1"*, %"struct.Kalmar::index_impl.1"** %this.addr.i.i, align 8
  %3 = bitcast %"struct.Kalmar::index_impl.1"* %this1.i.i to %"class.Kalmar::__index_leaf"*
  %4 = load i32, i32* %component.addr.i.i, align 4
  store %"class.Kalmar::__index_leaf"* %3, %"class.Kalmar::__index_leaf"** %this.addr.i.i.i, align 8
  store i32 %4, i32* %__t.addr.i.i.i, align 4
  %this1.i.i.i = load %"class.Kalmar::__index_leaf"*, %"class.Kalmar::__index_leaf"** %this.addr.i.i.i, align 8
  %__idx.i.i.i = getelementptr inbounds %"class.Kalmar::__index_leaf", %"class.Kalmar::__index_leaf"* %this1.i.i.i, i32 0, i32 0
  %5 = load i32, i32* %__t.addr.i.i.i, align 4
  store i32 %5, i32* %__idx.i.i.i, align 4
  %6 = bitcast %"struct.Kalmar::index_impl.1"* %this1.i.i to i8*
  %7 = getelementptr inbounds i8, i8* %6, i64 8
  %8 = bitcast i8* %7 to %"class.Kalmar::__index_leaf.2"*
  %9 = load i32, i32* %component.addr.i.i, align 4
  store %"class.Kalmar::__index_leaf.2"* %8, %"class.Kalmar::__index_leaf.2"** %this.addr.i2.i.i, align 8
  store i32 %9, i32* %__t.addr.i3.i.i, align 4
  %this1.i4.i.i = load %"class.Kalmar::__index_leaf.2"*, %"class.Kalmar::__index_leaf.2"** %this.addr.i2.i.i, align 8
  %__idx.i5.i.i = getelementptr inbounds %"class.Kalmar::__index_leaf.2", %"class.Kalmar::__index_leaf.2"* %this1.i4.i.i, i32 0, i32 0
  %10 = load i32, i32* %__t.addr.i3.i.i, align 4
  store i32 %10, i32* %__idx.i5.i.i, align 4
  ret void
}

; Function Attrs: alwaysinline uwtable
define weak_odr void @_ZN6Kalmar5indexILi2EEC2EPKi(%"class.Kalmar::index.0"* %this, i32* %components) unnamed_addr #4 align 2 {
  %this.addr.i3.i = alloca %"class.Kalmar::__index_leaf.2"*, align 8
  %__t.addr.i4.i = alloca i32, align 4
  %this.addr.i.i = alloca %"class.Kalmar::__index_leaf"*, align 8
  %__t.addr.i.i = alloca i32, align 4
  %this.addr.i = alloca %"struct.Kalmar::index_impl.1"*, align 8
  %components.addr.i = alloca i32*, align 8
  %this.addr = alloca %"class.Kalmar::index.0"*, align 8
  %components.addr = alloca i32*, align 8
  store %"class.Kalmar::index.0"* %this, %"class.Kalmar::index.0"** %this.addr, align 8
  store i32* %components, i32** %components.addr, align 8
  %this1 = load %"class.Kalmar::index.0"*, %"class.Kalmar::index.0"** %this.addr, align 8
  %base_ = getelementptr inbounds %"class.Kalmar::index.0", %"class.Kalmar::index.0"* %this1, i32 0, i32 0
  %1 = load i32*, i32** %components.addr, align 8
  store %"struct.Kalmar::index_impl.1"* %base_, %"struct.Kalmar::index_impl.1"** %this.addr.i, align 8
  store i32* %1, i32** %components.addr.i, align 8
  %this1.i = load %"struct.Kalmar::index_impl.1"*, %"struct.Kalmar::index_impl.1"** %this.addr.i, align 8
  %2 = bitcast %"struct.Kalmar::index_impl.1"* %this1.i to %"class.Kalmar::__index_leaf"*
  %3 = load i32*, i32** %components.addr.i, align 8
  %4 = load i32, i32* %3, align 4
  store %"class.Kalmar::__index_leaf"* %2, %"class.Kalmar::__index_leaf"** %this.addr.i.i, align 8
  store i32 %4, i32* %__t.addr.i.i, align 4
  %this1.i.i = load %"class.Kalmar::__index_leaf"*, %"class.Kalmar::__index_leaf"** %this.addr.i.i, align 8
  %__idx.i.i = getelementptr inbounds %"class.Kalmar::__index_leaf", %"class.Kalmar::__index_leaf"* %this1.i.i, i32 0, i32 0
  %5 = load i32, i32* %__t.addr.i.i, align 4
  store i32 %5, i32* %__idx.i.i, align 4
  %6 = bitcast %"struct.Kalmar::index_impl.1"* %this1.i to i8*
  %7 = getelementptr inbounds i8, i8* %6, i64 8
  %8 = bitcast i8* %7 to %"class.Kalmar::__index_leaf.2"*
  %9 = load i32*, i32** %components.addr.i, align 8
  %arrayidx2.i = getelementptr inbounds i32, i32* %9, i64 1
  %10 = load i32, i32* %arrayidx2.i, align 4
  store %"class.Kalmar::__index_leaf.2"* %8, %"class.Kalmar::__index_leaf.2"** %this.addr.i3.i, align 8
  store i32 %10, i32* %__t.addr.i4.i, align 4
  %this1.i5.i = load %"class.Kalmar::__index_leaf.2"*, %"class.Kalmar::__index_leaf.2"** %this.addr.i3.i, align 8
  %__idx.i6.i = getelementptr inbounds %"class.Kalmar::__index_leaf.2", %"class.Kalmar::__index_leaf.2"* %this1.i5.i, i32 0, i32 0
  %11 = load i32, i32* %__t.addr.i4.i, align 4
  store i32 %11, i32* %__idx.i6.i, align 4
  ret void
}

; Function Attrs: alwaysinline uwtable
define weak_odr void @_ZN6Kalmar5indexILi2EEC1EPKi(%"class.Kalmar::index.0"* %this, i32* %components) unnamed_addr #4 align 2 {
  %this.addr.i3.i.i = alloca %"class.Kalmar::__index_leaf.2"*, align 8
  %__t.addr.i4.i.i = alloca i32, align 4
  %this.addr.i.i.i = alloca %"class.Kalmar::__index_leaf"*, align 8
  %__t.addr.i.i.i = alloca i32, align 4
  %this.addr.i.i = alloca %"struct.Kalmar::index_impl.1"*, align 8
  %components.addr.i.i = alloca i32*, align 8
  %this.addr.i = alloca %"class.Kalmar::index.0"*, align 8
  %components.addr.i = alloca i32*, align 8
  %this.addr = alloca %"class.Kalmar::index.0"*, align 8
  %components.addr = alloca i32*, align 8
  store %"class.Kalmar::index.0"* %this, %"class.Kalmar::index.0"** %this.addr, align 8
  store i32* %components, i32** %components.addr, align 8
  %this1 = load %"class.Kalmar::index.0"*, %"class.Kalmar::index.0"** %this.addr, align 8
  %1 = load i32*, i32** %components.addr, align 8
  store %"class.Kalmar::index.0"* %this1, %"class.Kalmar::index.0"** %this.addr.i, align 8
  store i32* %1, i32** %components.addr.i, align 8
  %this1.i = load %"class.Kalmar::index.0"*, %"class.Kalmar::index.0"** %this.addr.i, align 8
  %base_.i = getelementptr inbounds %"class.Kalmar::index.0", %"class.Kalmar::index.0"* %this1.i, i32 0, i32 0
  %2 = load i32*, i32** %components.addr.i, align 8
  store %"struct.Kalmar::index_impl.1"* %base_.i, %"struct.Kalmar::index_impl.1"** %this.addr.i.i, align 8
  store i32* %2, i32** %components.addr.i.i, align 8
  %this1.i.i = load %"struct.Kalmar::index_impl.1"*, %"struct.Kalmar::index_impl.1"** %this.addr.i.i, align 8
  %3 = bitcast %"struct.Kalmar::index_impl.1"* %this1.i.i to %"class.Kalmar::__index_leaf"*
  %4 = load i32*, i32** %components.addr.i.i, align 8
  %5 = load i32, i32* %4, align 4
  store %"class.Kalmar::__index_leaf"* %3, %"class.Kalmar::__index_leaf"** %this.addr.i.i.i, align 8
  store i32 %5, i32* %__t.addr.i.i.i, align 4
  %this1.i.i.i = load %"class.Kalmar::__index_leaf"*, %"class.Kalmar::__index_leaf"** %this.addr.i.i.i, align 8
  %__idx.i.i.i = getelementptr inbounds %"class.Kalmar::__index_leaf", %"class.Kalmar::__index_leaf"* %this1.i.i.i, i32 0, i32 0
  %6 = load i32, i32* %__t.addr.i.i.i, align 4
  store i32 %6, i32* %__idx.i.i.i, align 4
  %7 = bitcast %"struct.Kalmar::index_impl.1"* %this1.i.i to i8*
  %8 = getelementptr inbounds i8, i8* %7, i64 8
  %9 = bitcast i8* %8 to %"class.Kalmar::__index_leaf.2"*
  %10 = load i32*, i32** %components.addr.i.i, align 8
  %arrayidx2.i.i = getelementptr inbounds i32, i32* %10, i64 1
  %11 = load i32, i32* %arrayidx2.i.i, align 4
  store %"class.Kalmar::__index_leaf.2"* %9, %"class.Kalmar::__index_leaf.2"** %this.addr.i3.i.i, align 8
  store i32 %11, i32* %__t.addr.i4.i.i, align 4
  %this1.i5.i.i = load %"class.Kalmar::__index_leaf.2"*, %"class.Kalmar::__index_leaf.2"** %this.addr.i3.i.i, align 8
  %__idx.i6.i.i = getelementptr inbounds %"class.Kalmar::__index_leaf.2", %"class.Kalmar::__index_leaf.2"* %this1.i5.i.i, i32 0, i32 0
  %12 = load i32, i32* %__t.addr.i4.i.i, align 4
  store i32 %12, i32* %__idx.i6.i.i, align 4
  ret void
}

; Function Attrs: alwaysinline uwtable
define weak_odr void @_ZN6Kalmar5indexILi2EEC2EPi(%"class.Kalmar::index.0"* %this, i32* %components) unnamed_addr #4 align 2 {
  %this.addr.i3.i = alloca %"class.Kalmar::__index_leaf.2"*, align 8
  %__t.addr.i4.i = alloca i32, align 4
  %this.addr.i.i = alloca %"class.Kalmar::__index_leaf"*, align 8
  %__t.addr.i.i = alloca i32, align 4
  %this.addr.i = alloca %"struct.Kalmar::index_impl.1"*, align 8
  %components.addr.i = alloca i32*, align 8
  %this.addr = alloca %"class.Kalmar::index.0"*, align 8
  %components.addr = alloca i32*, align 8
  store %"class.Kalmar::index.0"* %this, %"class.Kalmar::index.0"** %this.addr, align 8
  store i32* %components, i32** %components.addr, align 8
  %this1 = load %"class.Kalmar::index.0"*, %"class.Kalmar::index.0"** %this.addr, align 8
  %base_ = getelementptr inbounds %"class.Kalmar::index.0", %"class.Kalmar::index.0"* %this1, i32 0, i32 0
  %1 = load i32*, i32** %components.addr, align 8
  store %"struct.Kalmar::index_impl.1"* %base_, %"struct.Kalmar::index_impl.1"** %this.addr.i, align 8
  store i32* %1, i32** %components.addr.i, align 8
  %this1.i = load %"struct.Kalmar::index_impl.1"*, %"struct.Kalmar::index_impl.1"** %this.addr.i, align 8
  %2 = bitcast %"struct.Kalmar::index_impl.1"* %this1.i to %"class.Kalmar::__index_leaf"*
  %3 = load i32*, i32** %components.addr.i, align 8
  %4 = load i32, i32* %3, align 4
  store %"class.Kalmar::__index_leaf"* %2, %"class.Kalmar::__index_leaf"** %this.addr.i.i, align 8
  store i32 %4, i32* %__t.addr.i.i, align 4
  %this1.i.i = load %"class.Kalmar::__index_leaf"*, %"class.Kalmar::__index_leaf"** %this.addr.i.i, align 8
  %__idx.i.i = getelementptr inbounds %"class.Kalmar::__index_leaf", %"class.Kalmar::__index_leaf"* %this1.i.i, i32 0, i32 0
  %5 = load i32, i32* %__t.addr.i.i, align 4
  store i32 %5, i32* %__idx.i.i, align 4
  %6 = bitcast %"struct.Kalmar::index_impl.1"* %this1.i to i8*
  %7 = getelementptr inbounds i8, i8* %6, i64 8
  %8 = bitcast i8* %7 to %"class.Kalmar::__index_leaf.2"*
  %9 = load i32*, i32** %components.addr.i, align 8
  %arrayidx2.i = getelementptr inbounds i32, i32* %9, i64 1
  %10 = load i32, i32* %arrayidx2.i, align 4
  store %"class.Kalmar::__index_leaf.2"* %8, %"class.Kalmar::__index_leaf.2"** %this.addr.i3.i, align 8
  store i32 %10, i32* %__t.addr.i4.i, align 4
  %this1.i5.i = load %"class.Kalmar::__index_leaf.2"*, %"class.Kalmar::__index_leaf.2"** %this.addr.i3.i, align 8
  %__idx.i6.i = getelementptr inbounds %"class.Kalmar::__index_leaf.2", %"class.Kalmar::__index_leaf.2"* %this1.i5.i, i32 0, i32 0
  %11 = load i32, i32* %__t.addr.i4.i, align 4
  store i32 %11, i32* %__idx.i6.i, align 4
  ret void
}

; Function Attrs: alwaysinline uwtable
define weak_odr void @_ZN6Kalmar5indexILi2EEC1EPi(%"class.Kalmar::index.0"* %this, i32* %components) unnamed_addr #4 align 2 {
  %this.addr.i3.i.i = alloca %"class.Kalmar::__index_leaf.2"*, align 8
  %__t.addr.i4.i.i = alloca i32, align 4
  %this.addr.i.i.i = alloca %"class.Kalmar::__index_leaf"*, align 8
  %__t.addr.i.i.i = alloca i32, align 4
  %this.addr.i.i = alloca %"struct.Kalmar::index_impl.1"*, align 8
  %components.addr.i.i = alloca i32*, align 8
  %this.addr.i = alloca %"class.Kalmar::index.0"*, align 8
  %components.addr.i = alloca i32*, align 8
  %this.addr = alloca %"class.Kalmar::index.0"*, align 8
  %components.addr = alloca i32*, align 8
  store %"class.Kalmar::index.0"* %this, %"class.Kalmar::index.0"** %this.addr, align 8
  store i32* %components, i32** %components.addr, align 8
  %this1 = load %"class.Kalmar::index.0"*, %"class.Kalmar::index.0"** %this.addr, align 8
  %1 = load i32*, i32** %components.addr, align 8
  store %"class.Kalmar::index.0"* %this1, %"class.Kalmar::index.0"** %this.addr.i, align 8
  store i32* %1, i32** %components.addr.i, align 8
  %this1.i = load %"class.Kalmar::index.0"*, %"class.Kalmar::index.0"** %this.addr.i, align 8
  %base_.i = getelementptr inbounds %"class.Kalmar::index.0", %"class.Kalmar::index.0"* %this1.i, i32 0, i32 0
  %2 = load i32*, i32** %components.addr.i, align 8
  store %"struct.Kalmar::index_impl.1"* %base_.i, %"struct.Kalmar::index_impl.1"** %this.addr.i.i, align 8
  store i32* %2, i32** %components.addr.i.i, align 8
  %this1.i.i = load %"struct.Kalmar::index_impl.1"*, %"struct.Kalmar::index_impl.1"** %this.addr.i.i, align 8
  %3 = bitcast %"struct.Kalmar::index_impl.1"* %this1.i.i to %"class.Kalmar::__index_leaf"*
  %4 = load i32*, i32** %components.addr.i.i, align 8
  %5 = load i32, i32* %4, align 4
  store %"class.Kalmar::__index_leaf"* %3, %"class.Kalmar::__index_leaf"** %this.addr.i.i.i, align 8
  store i32 %5, i32* %__t.addr.i.i.i, align 4
  %this1.i.i.i = load %"class.Kalmar::__index_leaf"*, %"class.Kalmar::__index_leaf"** %this.addr.i.i.i, align 8
  %__idx.i.i.i = getelementptr inbounds %"class.Kalmar::__index_leaf", %"class.Kalmar::__index_leaf"* %this1.i.i.i, i32 0, i32 0
  %6 = load i32, i32* %__t.addr.i.i.i, align 4
  store i32 %6, i32* %__idx.i.i.i, align 4
  %7 = bitcast %"struct.Kalmar::index_impl.1"* %this1.i.i to i8*
  %8 = getelementptr inbounds i8, i8* %7, i64 8
  %9 = bitcast i8* %8 to %"class.Kalmar::__index_leaf.2"*
  %10 = load i32*, i32** %components.addr.i.i, align 8
  %arrayidx2.i.i = getelementptr inbounds i32, i32* %10, i64 1
  %11 = load i32, i32* %arrayidx2.i.i, align 4
  store %"class.Kalmar::__index_leaf.2"* %9, %"class.Kalmar::__index_leaf.2"** %this.addr.i3.i.i, align 8
  store i32 %11, i32* %__t.addr.i4.i.i, align 4
  %this1.i5.i.i = load %"class.Kalmar::__index_leaf.2"*, %"class.Kalmar::__index_leaf.2"** %this.addr.i3.i.i, align 8
  %__idx.i6.i.i = getelementptr inbounds %"class.Kalmar::__index_leaf.2", %"class.Kalmar::__index_leaf.2"* %this1.i5.i.i, i32 0, i32 0
  %12 = load i32, i32* %__t.addr.i4.i.i, align 4
  store i32 %12, i32* %__idx.i6.i.i, align 4
  ret void
}

; Function Attrs: alwaysinline uwtable
define weak_odr dereferenceable(16) %"class.Kalmar::index.0"* @_ZN6Kalmar5indexILi2EEaSERKS1_(%"class.Kalmar::index.0"* %this, %"class.Kalmar::index.0"* dereferenceable(16) %other) #4 align 2 {
  %this.addr.i14.i = alloca %"class.Kalmar::__index_leaf"*, align 8
  %__t.addr.i15.i = alloca i32, align 4
  %this.addr.i11.i = alloca %"class.Kalmar::__index_leaf.2"*, align 8
  %this.addr.i8.i = alloca %"class.Kalmar::__index_leaf.2"*, align 8
  %__t.addr.i.i = alloca i32, align 4
  %1 = alloca %"class.Kalmar::__index_leaf", align 4
  %2 = alloca %"class.Kalmar::__index_leaf.2", align 4
  %this.addr.i7.i = alloca %"struct.Kalmar::index_impl.1"*, align 8
  %this.addr.i.i = alloca %"class.Kalmar::__index_leaf"*, align 8
  %this.addr.i = alloca %"struct.Kalmar::index_impl.1"*, align 8
  %__t.addr.i = alloca %"struct.Kalmar::index_impl.1"*, align 8
  %agg.tmp.i = alloca %"class.Kalmar::__index_leaf", align 4
  %agg.tmp3.i = alloca %"class.Kalmar::__index_leaf.2", align 4
  %this.addr = alloca %"class.Kalmar::index.0"*, align 8
  %other.addr = alloca %"class.Kalmar::index.0"*, align 8
  store %"class.Kalmar::index.0"* %this, %"class.Kalmar::index.0"** %this.addr, align 8
  store %"class.Kalmar::index.0"* %other, %"class.Kalmar::index.0"** %other.addr, align 8
  %this1 = load %"class.Kalmar::index.0"*, %"class.Kalmar::index.0"** %this.addr, align 8
  %base_ = getelementptr inbounds %"class.Kalmar::index.0", %"class.Kalmar::index.0"* %this1, i32 0, i32 0
  %3 = load %"class.Kalmar::index.0"*, %"class.Kalmar::index.0"** %other.addr, align 8
  %base_2 = getelementptr inbounds %"class.Kalmar::index.0", %"class.Kalmar::index.0"* %3, i32 0, i32 0
  store %"struct.Kalmar::index_impl.1"* %base_, %"struct.Kalmar::index_impl.1"** %this.addr.i, align 8
  store %"struct.Kalmar::index_impl.1"* %base_2, %"struct.Kalmar::index_impl.1"** %__t.addr.i, align 8
  %this1.i = load %"struct.Kalmar::index_impl.1"*, %"struct.Kalmar::index_impl.1"** %this.addr.i, align 8
  %4 = bitcast %"struct.Kalmar::index_impl.1"* %this1.i to %"class.Kalmar::__index_leaf"*
  %5 = load %"struct.Kalmar::index_impl.1"*, %"struct.Kalmar::index_impl.1"** %__t.addr.i, align 8
  %6 = bitcast %"struct.Kalmar::index_impl.1"* %5 to %"class.Kalmar::__index_leaf"*
  store %"class.Kalmar::__index_leaf"* %6, %"class.Kalmar::__index_leaf"** %this.addr.i.i, align 8
  %this1.i.i = load %"class.Kalmar::__index_leaf"*, %"class.Kalmar::__index_leaf"** %this.addr.i.i, align 8
  %__idx.i.i = getelementptr inbounds %"class.Kalmar::__index_leaf", %"class.Kalmar::__index_leaf"* %this1.i.i, i32 0, i32 0
  %7 = load i32, i32* %__idx.i.i, align 4
  store %"class.Kalmar::__index_leaf"* %4, %"class.Kalmar::__index_leaf"** %this.addr.i14.i, align 8
  store i32 %7, i32* %__t.addr.i15.i, align 4
  %this1.i16.i = load %"class.Kalmar::__index_leaf"*, %"class.Kalmar::__index_leaf"** %this.addr.i14.i, align 8
  %8 = load i32, i32* %__t.addr.i15.i, align 4
  %__idx.i17.i = getelementptr inbounds %"class.Kalmar::__index_leaf", %"class.Kalmar::__index_leaf"* %this1.i16.i, i32 0, i32 0
  store i32 %8, i32* %__idx.i17.i, align 4
  %9 = bitcast %"class.Kalmar::__index_leaf"* %agg.tmp.i to i8*
  %10 = bitcast %"class.Kalmar::__index_leaf"* %this1.i16.i to i8*
  call void @llvm.memcpy.p0i8.p0i8.i64(i8* %9, i8* %10, i64 8, i32 4, i1 false)
  %11 = bitcast %"struct.Kalmar::index_impl.1"* %this1.i to i8*
  %add.ptr.i = getelementptr inbounds i8, i8* %11, i64 8
  %12 = bitcast i8* %add.ptr.i to %"class.Kalmar::__index_leaf.2"*
  %13 = load %"struct.Kalmar::index_impl.1"*, %"struct.Kalmar::index_impl.1"** %__t.addr.i, align 8
  %14 = bitcast %"struct.Kalmar::index_impl.1"* %13 to i8*
  %add.ptr4.i = getelementptr inbounds i8, i8* %14, i64 8
  %15 = bitcast i8* %add.ptr4.i to %"class.Kalmar::__index_leaf.2"*
  store %"class.Kalmar::__index_leaf.2"* %15, %"class.Kalmar::__index_leaf.2"** %this.addr.i11.i, align 8
  %this1.i12.i = load %"class.Kalmar::__index_leaf.2"*, %"class.Kalmar::__index_leaf.2"** %this.addr.i11.i, align 8
  %__idx.i13.i = getelementptr inbounds %"class.Kalmar::__index_leaf.2", %"class.Kalmar::__index_leaf.2"* %this1.i12.i, i32 0, i32 0
  %16 = load i32, i32* %__idx.i13.i, align 4
  store %"class.Kalmar::__index_leaf.2"* %12, %"class.Kalmar::__index_leaf.2"** %this.addr.i8.i, align 8
  store i32 %16, i32* %__t.addr.i.i, align 4
  %this1.i9.i = load %"class.Kalmar::__index_leaf.2"*, %"class.Kalmar::__index_leaf.2"** %this.addr.i8.i, align 8
  %17 = load i32, i32* %__t.addr.i.i, align 4
  %__idx.i10.i = getelementptr inbounds %"class.Kalmar::__index_leaf.2", %"class.Kalmar::__index_leaf.2"* %this1.i9.i, i32 0, i32 0
  store i32 %17, i32* %__idx.i10.i, align 4
  %18 = bitcast %"class.Kalmar::__index_leaf.2"* %agg.tmp3.i to i8*
  %19 = bitcast %"class.Kalmar::__index_leaf.2"* %this1.i9.i to i8*
  call void @llvm.memcpy.p0i8.p0i8.i64(i8* %18, i8* %19, i64 8, i32 4, i1 false)
  %20 = bitcast %"class.Kalmar::__index_leaf"* %agg.tmp.i to i64*
  %21 = load i64, i64* %20, align 4
  %22 = bitcast %"class.Kalmar::__index_leaf.2"* %agg.tmp3.i to i64*
  %23 = load i64, i64* %22, align 4
  %24 = bitcast %"class.Kalmar::__index_leaf"* %1 to i64*
  store i64 %21, i64* %24, align 4
  %25 = bitcast %"class.Kalmar::__index_leaf.2"* %2 to i64*
  store i64 %23, i64* %25, align 4
  store %"struct.Kalmar::index_impl.1"* %this1.i, %"struct.Kalmar::index_impl.1"** %this.addr.i7.i, align 8
  %this2.i.i = load %"struct.Kalmar::index_impl.1"*, %"struct.Kalmar::index_impl.1"** %this.addr.i7.i, align 8
  ret %"class.Kalmar::index.0"* %this1
}

; Function Attrs: alwaysinline uwtable
define weak_odr i32 @_ZNK6Kalmar5indexILi2EEixEj(%"class.Kalmar::index.0"* %this, i32 %c) #4 align 2 {
  %this.addr.i.i = alloca %"class.Kalmar::__index_leaf"*, align 8
  %this.addr.i = alloca %"struct.Kalmar::index_impl.1"*, align 8
  %c.addr.i = alloca i32, align 4
  %this.addr = alloca %"class.Kalmar::index.0"*, align 8
  %c.addr = alloca i32, align 4
  store %"class.Kalmar::index.0"* %this, %"class.Kalmar::index.0"** %this.addr, align 8
  store i32 %c, i32* %c.addr, align 4
  %this1 = load %"class.Kalmar::index.0"*, %"class.Kalmar::index.0"** %this.addr, align 8
  %base_ = getelementptr inbounds %"class.Kalmar::index.0", %"class.Kalmar::index.0"* %this1, i32 0, i32 0
  %1 = load i32, i32* %c.addr, align 4
  store %"struct.Kalmar::index_impl.1"* %base_, %"struct.Kalmar::index_impl.1"** %this.addr.i, align 8
  store i32 %1, i32* %c.addr.i, align 4
  %this1.i = load %"struct.Kalmar::index_impl.1"*, %"struct.Kalmar::index_impl.1"** %this.addr.i, align 8
  %2 = bitcast %"struct.Kalmar::index_impl.1"* %this1.i to %"class.Kalmar::__index_leaf"*
  %3 = load i32, i32* %c.addr.i, align 4
  %idx.ext.i = zext i32 %3 to i64
  %add.ptr.i = getelementptr inbounds %"class.Kalmar::__index_leaf", %"class.Kalmar::__index_leaf"* %2, i64 %idx.ext.i
  store %"class.Kalmar::__index_leaf"* %add.ptr.i, %"class.Kalmar::__index_leaf"** %this.addr.i.i, align 8
  %this1.i.i = load %"class.Kalmar::__index_leaf"*, %"class.Kalmar::__index_leaf"** %this.addr.i.i, align 8
  %__idx.i.i = getelementptr inbounds %"class.Kalmar::__index_leaf", %"class.Kalmar::__index_leaf"* %this1.i.i, i32 0, i32 0
  %4 = load i32, i32* %__idx.i.i, align 4
  ret i32 %4
}

; Function Attrs: alwaysinline uwtable
define weak_odr dereferenceable(4) i32* @_ZN6Kalmar5indexILi2EEixEj(%"class.Kalmar::index.0"* %this, i32 %c) #4 align 2 {
  %this.addr.i.i = alloca %"class.Kalmar::__index_leaf"*, align 8
  %this.addr.i = alloca %"struct.Kalmar::index_impl.1"*, align 8
  %c.addr.i = alloca i32, align 4
  %this.addr = alloca %"class.Kalmar::index.0"*, align 8
  %c.addr = alloca i32, align 4
  store %"class.Kalmar::index.0"* %this, %"class.Kalmar::index.0"** %this.addr, align 8
  store i32 %c, i32* %c.addr, align 4
  %this1 = load %"class.Kalmar::index.0"*, %"class.Kalmar::index.0"** %this.addr, align 8
  %base_ = getelementptr inbounds %"class.Kalmar::index.0", %"class.Kalmar::index.0"* %this1, i32 0, i32 0
  %1 = load i32, i32* %c.addr, align 4
  store %"struct.Kalmar::index_impl.1"* %base_, %"struct.Kalmar::index_impl.1"** %this.addr.i, align 8
  store i32 %1, i32* %c.addr.i, align 4
  %this1.i = load %"struct.Kalmar::index_impl.1"*, %"struct.Kalmar::index_impl.1"** %this.addr.i, align 8
  %2 = bitcast %"struct.Kalmar::index_impl.1"* %this1.i to %"class.Kalmar::__index_leaf"*
  %3 = load i32, i32* %c.addr.i, align 4
  %idx.ext.i = zext i32 %3 to i64
  %add.ptr.i = getelementptr inbounds %"class.Kalmar::__index_leaf", %"class.Kalmar::__index_leaf"* %2, i64 %idx.ext.i
  store %"class.Kalmar::__index_leaf"* %add.ptr.i, %"class.Kalmar::__index_leaf"** %this.addr.i.i, align 8
  %this1.i.i = load %"class.Kalmar::__index_leaf"*, %"class.Kalmar::__index_leaf"** %this.addr.i.i, align 8
  %__idx.i.i = getelementptr inbounds %"class.Kalmar::__index_leaf", %"class.Kalmar::__index_leaf"* %this1.i.i, i32 0, i32 0
  ret i32* %__idx.i.i
}

; Function Attrs: alwaysinline uwtable
define weak_odr zeroext i1 @_ZNK6Kalmar5indexILi2EEeqERKS1_(%"class.Kalmar::index.0"* %this, %"class.Kalmar::index.0"* dereferenceable(16) %other) #4 align 2 {
  %this.addr.i.i.i8.i = alloca %"class.Kalmar::__index_leaf"*, align 8
  %this.addr.i.i9.i = alloca %"struct.Kalmar::index_impl.1"*, align 8
  %c.addr.i.i10.i = alloca i32, align 4
  %this.addr.i11.i = alloca %"class.Kalmar::index.0"*, align 8
  %c.addr.i12.i = alloca i32, align 4
  %this.addr.i.i.i2.i.i = alloca %"class.Kalmar::__index_leaf"*, align 8
  %this.addr.i.i3.i.i = alloca %"struct.Kalmar::index_impl.1"*, align 8
  %c.addr.i.i4.i.i = alloca i32, align 4
  %this.addr.i5.i.i = alloca %"class.Kalmar::index.0"*, align 8
  %c.addr.i6.i.i = alloca i32, align 4
  %this.addr.i.i.i.i.i = alloca %"class.Kalmar::__index_leaf"*, align 8
  %this.addr.i.i.i3.i = alloca %"struct.Kalmar::index_impl.1"*, align 8
  %c.addr.i.i.i.i = alloca i32, align 4
  %this.addr.i.i4.i = alloca %"class.Kalmar::index.0"*, align 8
  %c.addr.i.i5.i = alloca i32, align 4
  %_lhs.addr.i.i = alloca %"class.Kalmar::index.0"*, align 8
  %_rhs.addr.i.i = alloca %"class.Kalmar::index.0"*, align 8
  %this.addr.i.i.i.i = alloca %"class.Kalmar::__index_leaf"*, align 8
  %this.addr.i.i.i = alloca %"struct.Kalmar::index_impl.1"*, align 8
  %c.addr.i.i.i = alloca i32, align 4
  %this.addr.i.i = alloca %"class.Kalmar::index.0"*, align 8
  %c.addr.i.i = alloca i32, align 4
  %_lhs.addr.i = alloca %"class.Kalmar::index.0"*, align 8
  %_rhs.addr.i = alloca %"class.Kalmar::index.0"*, align 8
  %this.addr = alloca %"class.Kalmar::index.0"*, align 8
  %other.addr = alloca %"class.Kalmar::index.0"*, align 8
  store %"class.Kalmar::index.0"* %this, %"class.Kalmar::index.0"** %this.addr, align 8
  store %"class.Kalmar::index.0"* %other, %"class.Kalmar::index.0"** %other.addr, align 8
  %this1 = load %"class.Kalmar::index.0"*, %"class.Kalmar::index.0"** %this.addr, align 8
  %1 = load %"class.Kalmar::index.0"*, %"class.Kalmar::index.0"** %other.addr, align 8
  store %"class.Kalmar::index.0"* %this1, %"class.Kalmar::index.0"** %_lhs.addr.i, align 8
  store %"class.Kalmar::index.0"* %1, %"class.Kalmar::index.0"** %_rhs.addr.i, align 8
  %2 = load %"class.Kalmar::index.0"*, %"class.Kalmar::index.0"** %_lhs.addr.i, align 8
  store %"class.Kalmar::index.0"* %2, %"class.Kalmar::index.0"** %this.addr.i.i, align 8
  store i32 1, i32* %c.addr.i.i, align 4
  %this1.i.i = load %"class.Kalmar::index.0"*, %"class.Kalmar::index.0"** %this.addr.i.i, align 8
  %base_.i.i = getelementptr inbounds %"class.Kalmar::index.0", %"class.Kalmar::index.0"* %this1.i.i, i32 0, i32 0
  %3 = load i32, i32* %c.addr.i.i, align 4
  store %"struct.Kalmar::index_impl.1"* %base_.i.i, %"struct.Kalmar::index_impl.1"** %this.addr.i.i.i, align 8
  store i32 %3, i32* %c.addr.i.i.i, align 4
  %this1.i.i.i = load %"struct.Kalmar::index_impl.1"*, %"struct.Kalmar::index_impl.1"** %this.addr.i.i.i, align 8
  %4 = bitcast %"struct.Kalmar::index_impl.1"* %this1.i.i.i to %"class.Kalmar::__index_leaf"*
  %5 = load i32, i32* %c.addr.i.i.i, align 4
  %idx.ext.i.i.i = zext i32 %5 to i64
  %add.ptr.i.i.i = getelementptr inbounds %"class.Kalmar::__index_leaf", %"class.Kalmar::__index_leaf"* %4, i64 %idx.ext.i.i.i
  store %"class.Kalmar::__index_leaf"* %add.ptr.i.i.i, %"class.Kalmar::__index_leaf"** %this.addr.i.i.i.i, align 8
  %this1.i.i.i.i = load %"class.Kalmar::__index_leaf"*, %"class.Kalmar::__index_leaf"** %this.addr.i.i.i.i, align 8
  %__idx.i.i.i.i = getelementptr inbounds %"class.Kalmar::__index_leaf", %"class.Kalmar::__index_leaf"* %this1.i.i.i.i, i32 0, i32 0
  %6 = load i32, i32* %__idx.i.i.i.i, align 4
  %7 = load %"class.Kalmar::index.0"*, %"class.Kalmar::index.0"** %_rhs.addr.i, align 8
  store %"class.Kalmar::index.0"* %7, %"class.Kalmar::index.0"** %this.addr.i11.i, align 8
  store i32 1, i32* %c.addr.i12.i, align 4
  %this1.i13.i = load %"class.Kalmar::index.0"*, %"class.Kalmar::index.0"** %this.addr.i11.i, align 8
  %base_.i14.i = getelementptr inbounds %"class.Kalmar::index.0", %"class.Kalmar::index.0"* %this1.i13.i, i32 0, i32 0
  %8 = load i32, i32* %c.addr.i12.i, align 4
  store %"struct.Kalmar::index_impl.1"* %base_.i14.i, %"struct.Kalmar::index_impl.1"** %this.addr.i.i9.i, align 8
  store i32 %8, i32* %c.addr.i.i10.i, align 4
  %this1.i.i15.i = load %"struct.Kalmar::index_impl.1"*, %"struct.Kalmar::index_impl.1"** %this.addr.i.i9.i, align 8
  %9 = bitcast %"struct.Kalmar::index_impl.1"* %this1.i.i15.i to %"class.Kalmar::__index_leaf"*
  %10 = load i32, i32* %c.addr.i.i10.i, align 4
  %idx.ext.i.i16.i = zext i32 %10 to i64
  %add.ptr.i.i17.i = getelementptr inbounds %"class.Kalmar::__index_leaf", %"class.Kalmar::__index_leaf"* %9, i64 %idx.ext.i.i16.i
  store %"class.Kalmar::__index_leaf"* %add.ptr.i.i17.i, %"class.Kalmar::__index_leaf"** %this.addr.i.i.i8.i, align 8
  %this1.i.i.i18.i = load %"class.Kalmar::__index_leaf"*, %"class.Kalmar::__index_leaf"** %this.addr.i.i.i8.i, align 8
  %__idx.i.i.i19.i = getelementptr inbounds %"class.Kalmar::__index_leaf", %"class.Kalmar::__index_leaf"* %this1.i.i.i18.i, i32 0, i32 0
  %11 = load i32, i32* %__idx.i.i.i19.i, align 4
  %cmp.i = icmp eq i32 %6, %11
  br i1 %cmp.i, label %12, label %_ZN6Kalmar12index_helperILi2ENS_5indexILi2EEEE5equalERKS2_S5_.exit

; <label>:12:                                     ; preds = %0
  %13 = load %"class.Kalmar::index.0"*, %"class.Kalmar::index.0"** %_lhs.addr.i, align 8
  %14 = load %"class.Kalmar::index.0"*, %"class.Kalmar::index.0"** %_rhs.addr.i, align 8
  store %"class.Kalmar::index.0"* %13, %"class.Kalmar::index.0"** %_lhs.addr.i.i, align 8
  store %"class.Kalmar::index.0"* %14, %"class.Kalmar::index.0"** %_rhs.addr.i.i, align 8
  %15 = load %"class.Kalmar::index.0"*, %"class.Kalmar::index.0"** %_lhs.addr.i.i, align 8
  store %"class.Kalmar::index.0"* %15, %"class.Kalmar::index.0"** %this.addr.i.i4.i, align 8
  store i32 0, i32* %c.addr.i.i5.i, align 4
  %this1.i.i6.i = load %"class.Kalmar::index.0"*, %"class.Kalmar::index.0"** %this.addr.i.i4.i, align 8
  %base_.i.i.i = getelementptr inbounds %"class.Kalmar::index.0", %"class.Kalmar::index.0"* %this1.i.i6.i, i32 0, i32 0
  %16 = load i32, i32* %c.addr.i.i5.i, align 4
  store %"struct.Kalmar::index_impl.1"* %base_.i.i.i, %"struct.Kalmar::index_impl.1"** %this.addr.i.i.i3.i, align 8
  store i32 %16, i32* %c.addr.i.i.i.i, align 4
  %this1.i.i.i7.i = load %"struct.Kalmar::index_impl.1"*, %"struct.Kalmar::index_impl.1"** %this.addr.i.i.i3.i, align 8
  %17 = bitcast %"struct.Kalmar::index_impl.1"* %this1.i.i.i7.i to %"class.Kalmar::__index_leaf"*
  %18 = load i32, i32* %c.addr.i.i.i.i, align 4
  %idx.ext.i.i.i.i = zext i32 %18 to i64
  %add.ptr.i.i.i.i = getelementptr inbounds %"class.Kalmar::__index_leaf", %"class.Kalmar::__index_leaf"* %17, i64 %idx.ext.i.i.i.i
  store %"class.Kalmar::__index_leaf"* %add.ptr.i.i.i.i, %"class.Kalmar::__index_leaf"** %this.addr.i.i.i.i.i, align 8
  %this1.i.i.i.i.i = load %"class.Kalmar::__index_leaf"*, %"class.Kalmar::__index_leaf"** %this.addr.i.i.i.i.i, align 8
  %__idx.i.i.i.i.i = getelementptr inbounds %"class.Kalmar::__index_leaf", %"class.Kalmar::__index_leaf"* %this1.i.i.i.i.i, i32 0, i32 0
  %19 = load i32, i32* %__idx.i.i.i.i.i, align 4
  %20 = load %"class.Kalmar::index.0"*, %"class.Kalmar::index.0"** %_rhs.addr.i.i, align 8
  store %"class.Kalmar::index.0"* %20, %"class.Kalmar::index.0"** %this.addr.i5.i.i, align 8
  store i32 0, i32* %c.addr.i6.i.i, align 4
  %this1.i7.i.i = load %"class.Kalmar::index.0"*, %"class.Kalmar::index.0"** %this.addr.i5.i.i, align 8
  %base_.i8.i.i = getelementptr inbounds %"class.Kalmar::index.0", %"class.Kalmar::index.0"* %this1.i7.i.i, i32 0, i32 0
  %21 = load i32, i32* %c.addr.i6.i.i, align 4
  store %"struct.Kalmar::index_impl.1"* %base_.i8.i.i, %"struct.Kalmar::index_impl.1"** %this.addr.i.i3.i.i, align 8
  store i32 %21, i32* %c.addr.i.i4.i.i, align 4
  %this1.i.i9.i.i = load %"struct.Kalmar::index_impl.1"*, %"struct.Kalmar::index_impl.1"** %this.addr.i.i3.i.i, align 8
  %22 = bitcast %"struct.Kalmar::index_impl.1"* %this1.i.i9.i.i to %"class.Kalmar::__index_leaf"*
  %23 = load i32, i32* %c.addr.i.i4.i.i, align 4
  %idx.ext.i.i10.i.i = zext i32 %23 to i64
  %add.ptr.i.i11.i.i = getelementptr inbounds %"class.Kalmar::__index_leaf", %"class.Kalmar::__index_leaf"* %22, i64 %idx.ext.i.i10.i.i
  store %"class.Kalmar::__index_leaf"* %add.ptr.i.i11.i.i, %"class.Kalmar::__index_leaf"** %this.addr.i.i.i2.i.i, align 8
  %this1.i.i.i12.i.i = load %"class.Kalmar::__index_leaf"*, %"class.Kalmar::__index_leaf"** %this.addr.i.i.i2.i.i, align 8
  %__idx.i.i.i13.i.i = getelementptr inbounds %"class.Kalmar::__index_leaf", %"class.Kalmar::__index_leaf"* %this1.i.i.i12.i.i, i32 0, i32 0
  %24 = load i32, i32* %__idx.i.i.i13.i.i, align 4
  %cmp.i.i = icmp eq i32 %19, %24
  br label %_ZN6Kalmar12index_helperILi2ENS_5indexILi2EEEE5equalERKS2_S5_.exit

_ZN6Kalmar12index_helperILi2ENS_5indexILi2EEEE5equalERKS2_S5_.exit: ; preds = %12, %0
  %25 = phi i1 [ false, %0 ], [ %cmp.i.i, %12 ]
  ret i1 %25
}

; Function Attrs: alwaysinline uwtable
define weak_odr zeroext i1 @_ZNK6Kalmar5indexILi2EEneERKS1_(%"class.Kalmar::index.0"* %this, %"class.Kalmar::index.0"* dereferenceable(16) %other) #4 align 2 {
  %this.addr.i.i.i8.i.i = alloca %"class.Kalmar::__index_leaf"*, align 8
  %this.addr.i.i9.i.i = alloca %"struct.Kalmar::index_impl.1"*, align 8
  %c.addr.i.i10.i.i = alloca i32, align 4
  %this.addr.i11.i.i = alloca %"class.Kalmar::index.0"*, align 8
  %c.addr.i12.i.i = alloca i32, align 4
  %this.addr.i.i.i2.i.i.i = alloca %"class.Kalmar::__index_leaf"*, align 8
  %this.addr.i.i3.i.i.i = alloca %"struct.Kalmar::index_impl.1"*, align 8
  %c.addr.i.i4.i.i.i = alloca i32, align 4
  %this.addr.i5.i.i.i = alloca %"class.Kalmar::index.0"*, align 8
  %c.addr.i6.i.i.i = alloca i32, align 4
  %this.addr.i.i.i.i.i.i = alloca %"class.Kalmar::__index_leaf"*, align 8
  %this.addr.i.i.i3.i.i = alloca %"struct.Kalmar::index_impl.1"*, align 8
  %c.addr.i.i.i.i.i = alloca i32, align 4
  %this.addr.i.i4.i.i = alloca %"class.Kalmar::index.0"*, align 8
  %c.addr.i.i5.i.i = alloca i32, align 4
  %_lhs.addr.i.i.i = alloca %"class.Kalmar::index.0"*, align 8
  %_rhs.addr.i.i.i = alloca %"class.Kalmar::index.0"*, align 8
  %this.addr.i.i.i.i.i = alloca %"class.Kalmar::__index_leaf"*, align 8
  %this.addr.i.i.i.i = alloca %"struct.Kalmar::index_impl.1"*, align 8
  %c.addr.i.i.i.i = alloca i32, align 4
  %this.addr.i.i.i = alloca %"class.Kalmar::index.0"*, align 8
  %c.addr.i.i.i = alloca i32, align 4
  %_lhs.addr.i.i = alloca %"class.Kalmar::index.0"*, align 8
  %_rhs.addr.i.i = alloca %"class.Kalmar::index.0"*, align 8
  %this.addr.i = alloca %"class.Kalmar::index.0"*, align 8
  %other.addr.i = alloca %"class.Kalmar::index.0"*, align 8
  %this.addr = alloca %"class.Kalmar::index.0"*, align 8
  %other.addr = alloca %"class.Kalmar::index.0"*, align 8
  store %"class.Kalmar::index.0"* %this, %"class.Kalmar::index.0"** %this.addr, align 8
  store %"class.Kalmar::index.0"* %other, %"class.Kalmar::index.0"** %other.addr, align 8
  %this1 = load %"class.Kalmar::index.0"*, %"class.Kalmar::index.0"** %this.addr, align 8
  %1 = load %"class.Kalmar::index.0"*, %"class.Kalmar::index.0"** %other.addr, align 8
  store %"class.Kalmar::index.0"* %this1, %"class.Kalmar::index.0"** %this.addr.i, align 8
  store %"class.Kalmar::index.0"* %1, %"class.Kalmar::index.0"** %other.addr.i, align 8
  %this1.i = load %"class.Kalmar::index.0"*, %"class.Kalmar::index.0"** %this.addr.i, align 8
  %2 = load %"class.Kalmar::index.0"*, %"class.Kalmar::index.0"** %other.addr.i, align 8
  store %"class.Kalmar::index.0"* %this1.i, %"class.Kalmar::index.0"** %_lhs.addr.i.i, align 8
  store %"class.Kalmar::index.0"* %2, %"class.Kalmar::index.0"** %_rhs.addr.i.i, align 8
  %3 = load %"class.Kalmar::index.0"*, %"class.Kalmar::index.0"** %_lhs.addr.i.i, align 8
  store %"class.Kalmar::index.0"* %3, %"class.Kalmar::index.0"** %this.addr.i.i.i, align 8
  store i32 1, i32* %c.addr.i.i.i, align 4
  %this1.i.i.i = load %"class.Kalmar::index.0"*, %"class.Kalmar::index.0"** %this.addr.i.i.i, align 8
  %base_.i.i.i = getelementptr inbounds %"class.Kalmar::index.0", %"class.Kalmar::index.0"* %this1.i.i.i, i32 0, i32 0
  %4 = load i32, i32* %c.addr.i.i.i, align 4
  store %"struct.Kalmar::index_impl.1"* %base_.i.i.i, %"struct.Kalmar::index_impl.1"** %this.addr.i.i.i.i, align 8
  store i32 %4, i32* %c.addr.i.i.i.i, align 4
  %this1.i.i.i.i = load %"struct.Kalmar::index_impl.1"*, %"struct.Kalmar::index_impl.1"** %this.addr.i.i.i.i, align 8
  %5 = bitcast %"struct.Kalmar::index_impl.1"* %this1.i.i.i.i to %"class.Kalmar::__index_leaf"*
  %6 = load i32, i32* %c.addr.i.i.i.i, align 4
  %idx.ext.i.i.i.i = zext i32 %6 to i64
  %add.ptr.i.i.i.i = getelementptr inbounds %"class.Kalmar::__index_leaf", %"class.Kalmar::__index_leaf"* %5, i64 %idx.ext.i.i.i.i
  store %"class.Kalmar::__index_leaf"* %add.ptr.i.i.i.i, %"class.Kalmar::__index_leaf"** %this.addr.i.i.i.i.i, align 8
  %this1.i.i.i.i.i = load %"class.Kalmar::__index_leaf"*, %"class.Kalmar::__index_leaf"** %this.addr.i.i.i.i.i, align 8
  %__idx.i.i.i.i.i = getelementptr inbounds %"class.Kalmar::__index_leaf", %"class.Kalmar::__index_leaf"* %this1.i.i.i.i.i, i32 0, i32 0
  %7 = load i32, i32* %__idx.i.i.i.i.i, align 4
  %8 = load %"class.Kalmar::index.0"*, %"class.Kalmar::index.0"** %_rhs.addr.i.i, align 8
  store %"class.Kalmar::index.0"* %8, %"class.Kalmar::index.0"** %this.addr.i11.i.i, align 8
  store i32 1, i32* %c.addr.i12.i.i, align 4
  %this1.i13.i.i = load %"class.Kalmar::index.0"*, %"class.Kalmar::index.0"** %this.addr.i11.i.i, align 8
  %base_.i14.i.i = getelementptr inbounds %"class.Kalmar::index.0", %"class.Kalmar::index.0"* %this1.i13.i.i, i32 0, i32 0
  %9 = load i32, i32* %c.addr.i12.i.i, align 4
  store %"struct.Kalmar::index_impl.1"* %base_.i14.i.i, %"struct.Kalmar::index_impl.1"** %this.addr.i.i9.i.i, align 8
  store i32 %9, i32* %c.addr.i.i10.i.i, align 4
  %this1.i.i15.i.i = load %"struct.Kalmar::index_impl.1"*, %"struct.Kalmar::index_impl.1"** %this.addr.i.i9.i.i, align 8
  %10 = bitcast %"struct.Kalmar::index_impl.1"* %this1.i.i15.i.i to %"class.Kalmar::__index_leaf"*
  %11 = load i32, i32* %c.addr.i.i10.i.i, align 4
  %idx.ext.i.i16.i.i = zext i32 %11 to i64
  %add.ptr.i.i17.i.i = getelementptr inbounds %"class.Kalmar::__index_leaf", %"class.Kalmar::__index_leaf"* %10, i64 %idx.ext.i.i16.i.i
  store %"class.Kalmar::__index_leaf"* %add.ptr.i.i17.i.i, %"class.Kalmar::__index_leaf"** %this.addr.i.i.i8.i.i, align 8
  %this1.i.i.i18.i.i = load %"class.Kalmar::__index_leaf"*, %"class.Kalmar::__index_leaf"** %this.addr.i.i.i8.i.i, align 8
  %__idx.i.i.i19.i.i = getelementptr inbounds %"class.Kalmar::__index_leaf", %"class.Kalmar::__index_leaf"* %this1.i.i.i18.i.i, i32 0, i32 0
  %12 = load i32, i32* %__idx.i.i.i19.i.i, align 4
  %cmp.i.i = icmp eq i32 %7, %12
  br i1 %cmp.i.i, label %13, label %_ZNK6Kalmar5indexILi2EEeqERKS1_.exit

; <label>:13:                                     ; preds = %0
  %14 = load %"class.Kalmar::index.0"*, %"class.Kalmar::index.0"** %_lhs.addr.i.i, align 8
  %15 = load %"class.Kalmar::index.0"*, %"class.Kalmar::index.0"** %_rhs.addr.i.i, align 8
  store %"class.Kalmar::index.0"* %14, %"class.Kalmar::index.0"** %_lhs.addr.i.i.i, align 8
  store %"class.Kalmar::index.0"* %15, %"class.Kalmar::index.0"** %_rhs.addr.i.i.i, align 8
  %16 = load %"class.Kalmar::index.0"*, %"class.Kalmar::index.0"** %_lhs.addr.i.i.i, align 8
  store %"class.Kalmar::index.0"* %16, %"class.Kalmar::index.0"** %this.addr.i.i4.i.i, align 8
  store i32 0, i32* %c.addr.i.i5.i.i, align 4
  %this1.i.i6.i.i = load %"class.Kalmar::index.0"*, %"class.Kalmar::index.0"** %this.addr.i.i4.i.i, align 8
  %base_.i.i.i.i = getelementptr inbounds %"class.Kalmar::index.0", %"class.Kalmar::index.0"* %this1.i.i6.i.i, i32 0, i32 0
  %17 = load i32, i32* %c.addr.i.i5.i.i, align 4
  store %"struct.Kalmar::index_impl.1"* %base_.i.i.i.i, %"struct.Kalmar::index_impl.1"** %this.addr.i.i.i3.i.i, align 8
  store i32 %17, i32* %c.addr.i.i.i.i.i, align 4
  %this1.i.i.i7.i.i = load %"struct.Kalmar::index_impl.1"*, %"struct.Kalmar::index_impl.1"** %this.addr.i.i.i3.i.i, align 8
  %18 = bitcast %"struct.Kalmar::index_impl.1"* %this1.i.i.i7.i.i to %"class.Kalmar::__index_leaf"*
  %19 = load i32, i32* %c.addr.i.i.i.i.i, align 4
  %idx.ext.i.i.i.i.i = zext i32 %19 to i64
  %add.ptr.i.i.i.i.i = getelementptr inbounds %"class.Kalmar::__index_leaf", %"class.Kalmar::__index_leaf"* %18, i64 %idx.ext.i.i.i.i.i
  store %"class.Kalmar::__index_leaf"* %add.ptr.i.i.i.i.i, %"class.Kalmar::__index_leaf"** %this.addr.i.i.i.i.i.i, align 8
  %this1.i.i.i.i.i.i = load %"class.Kalmar::__index_leaf"*, %"class.Kalmar::__index_leaf"** %this.addr.i.i.i.i.i.i, align 8
  %__idx.i.i.i.i.i.i = getelementptr inbounds %"class.Kalmar::__index_leaf", %"class.Kalmar::__index_leaf"* %this1.i.i.i.i.i.i, i32 0, i32 0
  %20 = load i32, i32* %__idx.i.i.i.i.i.i, align 4
  %21 = load %"class.Kalmar::index.0"*, %"class.Kalmar::index.0"** %_rhs.addr.i.i.i, align 8
  store %"class.Kalmar::index.0"* %21, %"class.Kalmar::index.0"** %this.addr.i5.i.i.i, align 8
  store i32 0, i32* %c.addr.i6.i.i.i, align 4
  %this1.i7.i.i.i = load %"class.Kalmar::index.0"*, %"class.Kalmar::index.0"** %this.addr.i5.i.i.i, align 8
  %base_.i8.i.i.i = getelementptr inbounds %"class.Kalmar::index.0", %"class.Kalmar::index.0"* %this1.i7.i.i.i, i32 0, i32 0
  %22 = load i32, i32* %c.addr.i6.i.i.i, align 4
  store %"struct.Kalmar::index_impl.1"* %base_.i8.i.i.i, %"struct.Kalmar::index_impl.1"** %this.addr.i.i3.i.i.i, align 8
  store i32 %22, i32* %c.addr.i.i4.i.i.i, align 4
  %this1.i.i9.i.i.i = load %"struct.Kalmar::index_impl.1"*, %"struct.Kalmar::index_impl.1"** %this.addr.i.i3.i.i.i, align 8
  %23 = bitcast %"struct.Kalmar::index_impl.1"* %this1.i.i9.i.i.i to %"class.Kalmar::__index_leaf"*
  %24 = load i32, i32* %c.addr.i.i4.i.i.i, align 4
  %idx.ext.i.i10.i.i.i = zext i32 %24 to i64
  %add.ptr.i.i11.i.i.i = getelementptr inbounds %"class.Kalmar::__index_leaf", %"class.Kalmar::__index_leaf"* %23, i64 %idx.ext.i.i10.i.i.i
  store %"class.Kalmar::__index_leaf"* %add.ptr.i.i11.i.i.i, %"class.Kalmar::__index_leaf"** %this.addr.i.i.i2.i.i.i, align 8
  %this1.i.i.i12.i.i.i = load %"class.Kalmar::__index_leaf"*, %"class.Kalmar::__index_leaf"** %this.addr.i.i.i2.i.i.i, align 8
  %__idx.i.i.i13.i.i.i = getelementptr inbounds %"class.Kalmar::__index_leaf", %"class.Kalmar::__index_leaf"* %this1.i.i.i12.i.i.i, i32 0, i32 0
  %25 = load i32, i32* %__idx.i.i.i13.i.i.i, align 4
  %cmp.i.i.i = icmp eq i32 %20, %25
  br label %_ZNK6Kalmar5indexILi2EEeqERKS1_.exit

_ZNK6Kalmar5indexILi2EEeqERKS1_.exit:             ; preds = %13, %0
  %26 = phi i1 [ false, %0 ], [ %cmp.i.i.i, %13 ]
  %lnot = xor i1 %26, true
  ret i1 %lnot
}

; Function Attrs: alwaysinline uwtable
define weak_odr dereferenceable(16) %"class.Kalmar::index.0"* @_ZN6Kalmar5indexILi2EEpLERKS1_(%"class.Kalmar::index.0"* %this, %"class.Kalmar::index.0"* dereferenceable(16) %rhs) #4 align 2 {
  %this.addr.i14.i = alloca %"class.Kalmar::__index_leaf"*, align 8
  %__t.addr.i15.i = alloca i32, align 4
  %this.addr.i11.i = alloca %"class.Kalmar::__index_leaf.2"*, align 8
  %this.addr.i8.i = alloca %"class.Kalmar::__index_leaf.2"*, align 8
  %__t.addr.i.i = alloca i32, align 4
  %1 = alloca %"class.Kalmar::__index_leaf", align 4
  %2 = alloca %"class.Kalmar::__index_leaf.2", align 4
  %this.addr.i7.i = alloca %"struct.Kalmar::index_impl.1"*, align 8
  %this.addr.i.i = alloca %"class.Kalmar::__index_leaf"*, align 8
  %this.addr.i = alloca %"struct.Kalmar::index_impl.1"*, align 8
  %__t.addr.i = alloca %"struct.Kalmar::index_impl.1"*, align 8
  %agg.tmp.i = alloca %"class.Kalmar::__index_leaf", align 4
  %agg.tmp3.i = alloca %"class.Kalmar::__index_leaf.2", align 4
  %this.addr = alloca %"class.Kalmar::index.0"*, align 8
  %rhs.addr = alloca %"class.Kalmar::index.0"*, align 8
  store %"class.Kalmar::index.0"* %this, %"class.Kalmar::index.0"** %this.addr, align 8
  store %"class.Kalmar::index.0"* %rhs, %"class.Kalmar::index.0"** %rhs.addr, align 8
  %this1 = load %"class.Kalmar::index.0"*, %"class.Kalmar::index.0"** %this.addr, align 8
  %base_ = getelementptr inbounds %"class.Kalmar::index.0", %"class.Kalmar::index.0"* %this1, i32 0, i32 0
  %3 = load %"class.Kalmar::index.0"*, %"class.Kalmar::index.0"** %rhs.addr, align 8
  %base_2 = getelementptr inbounds %"class.Kalmar::index.0", %"class.Kalmar::index.0"* %3, i32 0, i32 0
  store %"struct.Kalmar::index_impl.1"* %base_, %"struct.Kalmar::index_impl.1"** %this.addr.i, align 8
  store %"struct.Kalmar::index_impl.1"* %base_2, %"struct.Kalmar::index_impl.1"** %__t.addr.i, align 8
  %this1.i = load %"struct.Kalmar::index_impl.1"*, %"struct.Kalmar::index_impl.1"** %this.addr.i, align 8
  %4 = bitcast %"struct.Kalmar::index_impl.1"* %this1.i to %"class.Kalmar::__index_leaf"*
  %5 = load %"struct.Kalmar::index_impl.1"*, %"struct.Kalmar::index_impl.1"** %__t.addr.i, align 8
  %6 = bitcast %"struct.Kalmar::index_impl.1"* %5 to %"class.Kalmar::__index_leaf"*
  store %"class.Kalmar::__index_leaf"* %6, %"class.Kalmar::__index_leaf"** %this.addr.i.i, align 8
  %this1.i.i = load %"class.Kalmar::__index_leaf"*, %"class.Kalmar::__index_leaf"** %this.addr.i.i, align 8
  %__idx.i.i = getelementptr inbounds %"class.Kalmar::__index_leaf", %"class.Kalmar::__index_leaf"* %this1.i.i, i32 0, i32 0
  %7 = load i32, i32* %__idx.i.i, align 4
  store %"class.Kalmar::__index_leaf"* %4, %"class.Kalmar::__index_leaf"** %this.addr.i14.i, align 8
  store i32 %7, i32* %__t.addr.i15.i, align 4
  %this1.i16.i = load %"class.Kalmar::__index_leaf"*, %"class.Kalmar::__index_leaf"** %this.addr.i14.i, align 8
  %8 = load i32, i32* %__t.addr.i15.i, align 4
  %__idx.i17.i = getelementptr inbounds %"class.Kalmar::__index_leaf", %"class.Kalmar::__index_leaf"* %this1.i16.i, i32 0, i32 0
  %9 = load i32, i32* %__idx.i17.i, align 4
  %add.i18.i = add nsw i32 %9, %8
  store i32 %add.i18.i, i32* %__idx.i17.i, align 4
  %10 = bitcast %"class.Kalmar::__index_leaf"* %agg.tmp.i to i8*
  %11 = bitcast %"class.Kalmar::__index_leaf"* %this1.i16.i to i8*
  call void @llvm.memcpy.p0i8.p0i8.i64(i8* %10, i8* %11, i64 8, i32 4, i1 false)
  %12 = bitcast %"struct.Kalmar::index_impl.1"* %this1.i to i8*
  %add.ptr.i = getelementptr inbounds i8, i8* %12, i64 8
  %13 = bitcast i8* %add.ptr.i to %"class.Kalmar::__index_leaf.2"*
  %14 = load %"struct.Kalmar::index_impl.1"*, %"struct.Kalmar::index_impl.1"** %__t.addr.i, align 8
  %15 = bitcast %"struct.Kalmar::index_impl.1"* %14 to i8*
  %add.ptr4.i = getelementptr inbounds i8, i8* %15, i64 8
  %16 = bitcast i8* %add.ptr4.i to %"class.Kalmar::__index_leaf.2"*
  store %"class.Kalmar::__index_leaf.2"* %16, %"class.Kalmar::__index_leaf.2"** %this.addr.i11.i, align 8
  %this1.i12.i = load %"class.Kalmar::__index_leaf.2"*, %"class.Kalmar::__index_leaf.2"** %this.addr.i11.i, align 8
  %__idx.i13.i = getelementptr inbounds %"class.Kalmar::__index_leaf.2", %"class.Kalmar::__index_leaf.2"* %this1.i12.i, i32 0, i32 0
  %17 = load i32, i32* %__idx.i13.i, align 4
  store %"class.Kalmar::__index_leaf.2"* %13, %"class.Kalmar::__index_leaf.2"** %this.addr.i8.i, align 8
  store i32 %17, i32* %__t.addr.i.i, align 4
  %this1.i9.i = load %"class.Kalmar::__index_leaf.2"*, %"class.Kalmar::__index_leaf.2"** %this.addr.i8.i, align 8
  %18 = load i32, i32* %__t.addr.i.i, align 4
  %__idx.i10.i = getelementptr inbounds %"class.Kalmar::__index_leaf.2", %"class.Kalmar::__index_leaf.2"* %this1.i9.i, i32 0, i32 0
  %19 = load i32, i32* %__idx.i10.i, align 4
  %add.i.i = add nsw i32 %19, %18
  store i32 %add.i.i, i32* %__idx.i10.i, align 4
  %20 = bitcast %"class.Kalmar::__index_leaf.2"* %agg.tmp3.i to i8*
  %21 = bitcast %"class.Kalmar::__index_leaf.2"* %this1.i9.i to i8*
  call void @llvm.memcpy.p0i8.p0i8.i64(i8* %20, i8* %21, i64 8, i32 4, i1 false)
  %22 = bitcast %"class.Kalmar::__index_leaf"* %agg.tmp.i to i64*
  %23 = load i64, i64* %22, align 4
  %24 = bitcast %"class.Kalmar::__index_leaf.2"* %agg.tmp3.i to i64*
  %25 = load i64, i64* %24, align 4
  %26 = bitcast %"class.Kalmar::__index_leaf"* %1 to i64*
  store i64 %23, i64* %26, align 4
  %27 = bitcast %"class.Kalmar::__index_leaf.2"* %2 to i64*
  store i64 %25, i64* %27, align 4
  store %"struct.Kalmar::index_impl.1"* %this1.i, %"struct.Kalmar::index_impl.1"** %this.addr.i7.i, align 8
  %this2.i.i = load %"struct.Kalmar::index_impl.1"*, %"struct.Kalmar::index_impl.1"** %this.addr.i7.i, align 8
  ret %"class.Kalmar::index.0"* %this1
}

; Function Attrs: alwaysinline uwtable
define weak_odr dereferenceable(16) %"class.Kalmar::index.0"* @_ZN6Kalmar5indexILi2EEmIERKS1_(%"class.Kalmar::index.0"* %this, %"class.Kalmar::index.0"* dereferenceable(16) %rhs) #4 align 2 {
  %this.addr.i14.i = alloca %"class.Kalmar::__index_leaf"*, align 8
  %__t.addr.i15.i = alloca i32, align 4
  %this.addr.i11.i = alloca %"class.Kalmar::__index_leaf.2"*, align 8
  %this.addr.i8.i = alloca %"class.Kalmar::__index_leaf.2"*, align 8
  %__t.addr.i.i = alloca i32, align 4
  %1 = alloca %"class.Kalmar::__index_leaf", align 4
  %2 = alloca %"class.Kalmar::__index_leaf.2", align 4
  %this.addr.i7.i = alloca %"struct.Kalmar::index_impl.1"*, align 8
  %this.addr.i.i = alloca %"class.Kalmar::__index_leaf"*, align 8
  %this.addr.i = alloca %"struct.Kalmar::index_impl.1"*, align 8
  %__t.addr.i = alloca %"struct.Kalmar::index_impl.1"*, align 8
  %agg.tmp.i = alloca %"class.Kalmar::__index_leaf", align 4
  %agg.tmp3.i = alloca %"class.Kalmar::__index_leaf.2", align 4
  %this.addr = alloca %"class.Kalmar::index.0"*, align 8
  %rhs.addr = alloca %"class.Kalmar::index.0"*, align 8
  store %"class.Kalmar::index.0"* %this, %"class.Kalmar::index.0"** %this.addr, align 8
  store %"class.Kalmar::index.0"* %rhs, %"class.Kalmar::index.0"** %rhs.addr, align 8
  %this1 = load %"class.Kalmar::index.0"*, %"class.Kalmar::index.0"** %this.addr, align 8
  %base_ = getelementptr inbounds %"class.Kalmar::index.0", %"class.Kalmar::index.0"* %this1, i32 0, i32 0
  %3 = load %"class.Kalmar::index.0"*, %"class.Kalmar::index.0"** %rhs.addr, align 8
  %base_2 = getelementptr inbounds %"class.Kalmar::index.0", %"class.Kalmar::index.0"* %3, i32 0, i32 0
  store %"struct.Kalmar::index_impl.1"* %base_, %"struct.Kalmar::index_impl.1"** %this.addr.i, align 8
  store %"struct.Kalmar::index_impl.1"* %base_2, %"struct.Kalmar::index_impl.1"** %__t.addr.i, align 8
  %this1.i = load %"struct.Kalmar::index_impl.1"*, %"struct.Kalmar::index_impl.1"** %this.addr.i, align 8
  %4 = bitcast %"struct.Kalmar::index_impl.1"* %this1.i to %"class.Kalmar::__index_leaf"*
  %5 = load %"struct.Kalmar::index_impl.1"*, %"struct.Kalmar::index_impl.1"** %__t.addr.i, align 8
  %6 = bitcast %"struct.Kalmar::index_impl.1"* %5 to %"class.Kalmar::__index_leaf"*
  store %"class.Kalmar::__index_leaf"* %6, %"class.Kalmar::__index_leaf"** %this.addr.i.i, align 8
  %this1.i.i = load %"class.Kalmar::__index_leaf"*, %"class.Kalmar::__index_leaf"** %this.addr.i.i, align 8
  %__idx.i.i = getelementptr inbounds %"class.Kalmar::__index_leaf", %"class.Kalmar::__index_leaf"* %this1.i.i, i32 0, i32 0
  %7 = load i32, i32* %__idx.i.i, align 4
  store %"class.Kalmar::__index_leaf"* %4, %"class.Kalmar::__index_leaf"** %this.addr.i14.i, align 8
  store i32 %7, i32* %__t.addr.i15.i, align 4
  %this1.i16.i = load %"class.Kalmar::__index_leaf"*, %"class.Kalmar::__index_leaf"** %this.addr.i14.i, align 8
  %8 = load i32, i32* %__t.addr.i15.i, align 4
  %__idx.i17.i = getelementptr inbounds %"class.Kalmar::__index_leaf", %"class.Kalmar::__index_leaf"* %this1.i16.i, i32 0, i32 0
  %9 = load i32, i32* %__idx.i17.i, align 4
  %sub.i18.i = sub nsw i32 %9, %8
  store i32 %sub.i18.i, i32* %__idx.i17.i, align 4
  %10 = bitcast %"class.Kalmar::__index_leaf"* %agg.tmp.i to i8*
  %11 = bitcast %"class.Kalmar::__index_leaf"* %this1.i16.i to i8*
  call void @llvm.memcpy.p0i8.p0i8.i64(i8* %10, i8* %11, i64 8, i32 4, i1 false)
  %12 = bitcast %"struct.Kalmar::index_impl.1"* %this1.i to i8*
  %add.ptr.i = getelementptr inbounds i8, i8* %12, i64 8
  %13 = bitcast i8* %add.ptr.i to %"class.Kalmar::__index_leaf.2"*
  %14 = load %"struct.Kalmar::index_impl.1"*, %"struct.Kalmar::index_impl.1"** %__t.addr.i, align 8
  %15 = bitcast %"struct.Kalmar::index_impl.1"* %14 to i8*
  %add.ptr4.i = getelementptr inbounds i8, i8* %15, i64 8
  %16 = bitcast i8* %add.ptr4.i to %"class.Kalmar::__index_leaf.2"*
  store %"class.Kalmar::__index_leaf.2"* %16, %"class.Kalmar::__index_leaf.2"** %this.addr.i11.i, align 8
  %this1.i12.i = load %"class.Kalmar::__index_leaf.2"*, %"class.Kalmar::__index_leaf.2"** %this.addr.i11.i, align 8
  %__idx.i13.i = getelementptr inbounds %"class.Kalmar::__index_leaf.2", %"class.Kalmar::__index_leaf.2"* %this1.i12.i, i32 0, i32 0
  %17 = load i32, i32* %__idx.i13.i, align 4
  store %"class.Kalmar::__index_leaf.2"* %13, %"class.Kalmar::__index_leaf.2"** %this.addr.i8.i, align 8
  store i32 %17, i32* %__t.addr.i.i, align 4
  %this1.i9.i = load %"class.Kalmar::__index_leaf.2"*, %"class.Kalmar::__index_leaf.2"** %this.addr.i8.i, align 8
  %18 = load i32, i32* %__t.addr.i.i, align 4
  %__idx.i10.i = getelementptr inbounds %"class.Kalmar::__index_leaf.2", %"class.Kalmar::__index_leaf.2"* %this1.i9.i, i32 0, i32 0
  %19 = load i32, i32* %__idx.i10.i, align 4
  %sub.i.i = sub nsw i32 %19, %18
  store i32 %sub.i.i, i32* %__idx.i10.i, align 4
  %20 = bitcast %"class.Kalmar::__index_leaf.2"* %agg.tmp3.i to i8*
  %21 = bitcast %"class.Kalmar::__index_leaf.2"* %this1.i9.i to i8*
  call void @llvm.memcpy.p0i8.p0i8.i64(i8* %20, i8* %21, i64 8, i32 4, i1 false)
  %22 = bitcast %"class.Kalmar::__index_leaf"* %agg.tmp.i to i64*
  %23 = load i64, i64* %22, align 4
  %24 = bitcast %"class.Kalmar::__index_leaf.2"* %agg.tmp3.i to i64*
  %25 = load i64, i64* %24, align 4
  %26 = bitcast %"class.Kalmar::__index_leaf"* %1 to i64*
  store i64 %23, i64* %26, align 4
  %27 = bitcast %"class.Kalmar::__index_leaf.2"* %2 to i64*
  store i64 %25, i64* %27, align 4
  store %"struct.Kalmar::index_impl.1"* %this1.i, %"struct.Kalmar::index_impl.1"** %this.addr.i7.i, align 8
  %this2.i.i = load %"struct.Kalmar::index_impl.1"*, %"struct.Kalmar::index_impl.1"** %this.addr.i7.i, align 8
  ret %"class.Kalmar::index.0"* %this1
}

; Function Attrs: alwaysinline uwtable
define weak_odr dereferenceable(16) %"class.Kalmar::index.0"* @_ZN6Kalmar5indexILi2EEmLERKS1_(%"class.Kalmar::index.0"* %this, %"class.Kalmar::index.0"* dereferenceable(16) %__r) #4 align 2 {
  %this.addr.i14.i = alloca %"class.Kalmar::__index_leaf"*, align 8
  %__t.addr.i15.i = alloca i32, align 4
  %this.addr.i11.i = alloca %"class.Kalmar::__index_leaf.2"*, align 8
  %this.addr.i8.i = alloca %"class.Kalmar::__index_leaf.2"*, align 8
  %__t.addr.i.i = alloca i32, align 4
  %1 = alloca %"class.Kalmar::__index_leaf", align 4
  %2 = alloca %"class.Kalmar::__index_leaf.2", align 4
  %this.addr.i7.i = alloca %"struct.Kalmar::index_impl.1"*, align 8
  %this.addr.i.i = alloca %"class.Kalmar::__index_leaf"*, align 8
  %this.addr.i = alloca %"struct.Kalmar::index_impl.1"*, align 8
  %__t.addr.i = alloca %"struct.Kalmar::index_impl.1"*, align 8
  %agg.tmp.i = alloca %"class.Kalmar::__index_leaf", align 4
  %agg.tmp3.i = alloca %"class.Kalmar::__index_leaf.2", align 4
  %this.addr = alloca %"class.Kalmar::index.0"*, align 8
  %__r.addr = alloca %"class.Kalmar::index.0"*, align 8
  store %"class.Kalmar::index.0"* %this, %"class.Kalmar::index.0"** %this.addr, align 8
  store %"class.Kalmar::index.0"* %__r, %"class.Kalmar::index.0"** %__r.addr, align 8
  %this1 = load %"class.Kalmar::index.0"*, %"class.Kalmar::index.0"** %this.addr, align 8
  %base_ = getelementptr inbounds %"class.Kalmar::index.0", %"class.Kalmar::index.0"* %this1, i32 0, i32 0
  %3 = load %"class.Kalmar::index.0"*, %"class.Kalmar::index.0"** %__r.addr, align 8
  %base_2 = getelementptr inbounds %"class.Kalmar::index.0", %"class.Kalmar::index.0"* %3, i32 0, i32 0
  store %"struct.Kalmar::index_impl.1"* %base_, %"struct.Kalmar::index_impl.1"** %this.addr.i, align 8
  store %"struct.Kalmar::index_impl.1"* %base_2, %"struct.Kalmar::index_impl.1"** %__t.addr.i, align 8
  %this1.i = load %"struct.Kalmar::index_impl.1"*, %"struct.Kalmar::index_impl.1"** %this.addr.i, align 8
  %4 = bitcast %"struct.Kalmar::index_impl.1"* %this1.i to %"class.Kalmar::__index_leaf"*
  %5 = load %"struct.Kalmar::index_impl.1"*, %"struct.Kalmar::index_impl.1"** %__t.addr.i, align 8
  %6 = bitcast %"struct.Kalmar::index_impl.1"* %5 to %"class.Kalmar::__index_leaf"*
  store %"class.Kalmar::__index_leaf"* %6, %"class.Kalmar::__index_leaf"** %this.addr.i.i, align 8
  %this1.i.i = load %"class.Kalmar::__index_leaf"*, %"class.Kalmar::__index_leaf"** %this.addr.i.i, align 8
  %__idx.i.i = getelementptr inbounds %"class.Kalmar::__index_leaf", %"class.Kalmar::__index_leaf"* %this1.i.i, i32 0, i32 0
  %7 = load i32, i32* %__idx.i.i, align 4
  store %"class.Kalmar::__index_leaf"* %4, %"class.Kalmar::__index_leaf"** %this.addr.i14.i, align 8
  store i32 %7, i32* %__t.addr.i15.i, align 4
  %this1.i16.i = load %"class.Kalmar::__index_leaf"*, %"class.Kalmar::__index_leaf"** %this.addr.i14.i, align 8
  %8 = load i32, i32* %__t.addr.i15.i, align 4
  %__idx.i17.i = getelementptr inbounds %"class.Kalmar::__index_leaf", %"class.Kalmar::__index_leaf"* %this1.i16.i, i32 0, i32 0
  %9 = load i32, i32* %__idx.i17.i, align 4
  %mul.i18.i = mul nsw i32 %9, %8
  store i32 %mul.i18.i, i32* %__idx.i17.i, align 4
  %10 = bitcast %"class.Kalmar::__index_leaf"* %agg.tmp.i to i8*
  %11 = bitcast %"class.Kalmar::__index_leaf"* %this1.i16.i to i8*
  call void @llvm.memcpy.p0i8.p0i8.i64(i8* %10, i8* %11, i64 8, i32 4, i1 false)
  %12 = bitcast %"struct.Kalmar::index_impl.1"* %this1.i to i8*
  %add.ptr.i = getelementptr inbounds i8, i8* %12, i64 8
  %13 = bitcast i8* %add.ptr.i to %"class.Kalmar::__index_leaf.2"*
  %14 = load %"struct.Kalmar::index_impl.1"*, %"struct.Kalmar::index_impl.1"** %__t.addr.i, align 8
  %15 = bitcast %"struct.Kalmar::index_impl.1"* %14 to i8*
  %add.ptr4.i = getelementptr inbounds i8, i8* %15, i64 8
  %16 = bitcast i8* %add.ptr4.i to %"class.Kalmar::__index_leaf.2"*
  store %"class.Kalmar::__index_leaf.2"* %16, %"class.Kalmar::__index_leaf.2"** %this.addr.i11.i, align 8
  %this1.i12.i = load %"class.Kalmar::__index_leaf.2"*, %"class.Kalmar::__index_leaf.2"** %this.addr.i11.i, align 8
  %__idx.i13.i = getelementptr inbounds %"class.Kalmar::__index_leaf.2", %"class.Kalmar::__index_leaf.2"* %this1.i12.i, i32 0, i32 0
  %17 = load i32, i32* %__idx.i13.i, align 4
  store %"class.Kalmar::__index_leaf.2"* %13, %"class.Kalmar::__index_leaf.2"** %this.addr.i8.i, align 8
  store i32 %17, i32* %__t.addr.i.i, align 4
  %this1.i9.i = load %"class.Kalmar::__index_leaf.2"*, %"class.Kalmar::__index_leaf.2"** %this.addr.i8.i, align 8
  %18 = load i32, i32* %__t.addr.i.i, align 4
  %__idx.i10.i = getelementptr inbounds %"class.Kalmar::__index_leaf.2", %"class.Kalmar::__index_leaf.2"* %this1.i9.i, i32 0, i32 0
  %19 = load i32, i32* %__idx.i10.i, align 4
  %mul.i.i = mul nsw i32 %19, %18
  store i32 %mul.i.i, i32* %__idx.i10.i, align 4
  %20 = bitcast %"class.Kalmar::__index_leaf.2"* %agg.tmp3.i to i8*
  %21 = bitcast %"class.Kalmar::__index_leaf.2"* %this1.i9.i to i8*
  call void @llvm.memcpy.p0i8.p0i8.i64(i8* %20, i8* %21, i64 8, i32 4, i1 false)
  %22 = bitcast %"class.Kalmar::__index_leaf"* %agg.tmp.i to i64*
  %23 = load i64, i64* %22, align 4
  %24 = bitcast %"class.Kalmar::__index_leaf.2"* %agg.tmp3.i to i64*
  %25 = load i64, i64* %24, align 4
  %26 = bitcast %"class.Kalmar::__index_leaf"* %1 to i64*
  store i64 %23, i64* %26, align 4
  %27 = bitcast %"class.Kalmar::__index_leaf.2"* %2 to i64*
  store i64 %25, i64* %27, align 4
  store %"struct.Kalmar::index_impl.1"* %this1.i, %"struct.Kalmar::index_impl.1"** %this.addr.i7.i, align 8
  %this2.i.i = load %"struct.Kalmar::index_impl.1"*, %"struct.Kalmar::index_impl.1"** %this.addr.i7.i, align 8
  ret %"class.Kalmar::index.0"* %this1
}

; Function Attrs: alwaysinline uwtable
define weak_odr dereferenceable(16) %"class.Kalmar::index.0"* @_ZN6Kalmar5indexILi2EEdVERKS1_(%"class.Kalmar::index.0"* %this, %"class.Kalmar::index.0"* dereferenceable(16) %__r) #4 align 2 {
  %this.addr.i14.i = alloca %"class.Kalmar::__index_leaf"*, align 8
  %__t.addr.i15.i = alloca i32, align 4
  %this.addr.i11.i = alloca %"class.Kalmar::__index_leaf.2"*, align 8
  %this.addr.i8.i = alloca %"class.Kalmar::__index_leaf.2"*, align 8
  %__t.addr.i.i = alloca i32, align 4
  %1 = alloca %"class.Kalmar::__index_leaf", align 4
  %2 = alloca %"class.Kalmar::__index_leaf.2", align 4
  %this.addr.i7.i = alloca %"struct.Kalmar::index_impl.1"*, align 8
  %this.addr.i.i = alloca %"class.Kalmar::__index_leaf"*, align 8
  %this.addr.i = alloca %"struct.Kalmar::index_impl.1"*, align 8
  %__t.addr.i = alloca %"struct.Kalmar::index_impl.1"*, align 8
  %agg.tmp.i = alloca %"class.Kalmar::__index_leaf", align 4
  %agg.tmp3.i = alloca %"class.Kalmar::__index_leaf.2", align 4
  %this.addr = alloca %"class.Kalmar::index.0"*, align 8
  %__r.addr = alloca %"class.Kalmar::index.0"*, align 8
  store %"class.Kalmar::index.0"* %this, %"class.Kalmar::index.0"** %this.addr, align 8
  store %"class.Kalmar::index.0"* %__r, %"class.Kalmar::index.0"** %__r.addr, align 8
  %this1 = load %"class.Kalmar::index.0"*, %"class.Kalmar::index.0"** %this.addr, align 8
  %base_ = getelementptr inbounds %"class.Kalmar::index.0", %"class.Kalmar::index.0"* %this1, i32 0, i32 0
  %3 = load %"class.Kalmar::index.0"*, %"class.Kalmar::index.0"** %__r.addr, align 8
  %base_2 = getelementptr inbounds %"class.Kalmar::index.0", %"class.Kalmar::index.0"* %3, i32 0, i32 0
  store %"struct.Kalmar::index_impl.1"* %base_, %"struct.Kalmar::index_impl.1"** %this.addr.i, align 8
  store %"struct.Kalmar::index_impl.1"* %base_2, %"struct.Kalmar::index_impl.1"** %__t.addr.i, align 8
  %this1.i = load %"struct.Kalmar::index_impl.1"*, %"struct.Kalmar::index_impl.1"** %this.addr.i, align 8
  %4 = bitcast %"struct.Kalmar::index_impl.1"* %this1.i to %"class.Kalmar::__index_leaf"*
  %5 = load %"struct.Kalmar::index_impl.1"*, %"struct.Kalmar::index_impl.1"** %__t.addr.i, align 8
  %6 = bitcast %"struct.Kalmar::index_impl.1"* %5 to %"class.Kalmar::__index_leaf"*
  store %"class.Kalmar::__index_leaf"* %6, %"class.Kalmar::__index_leaf"** %this.addr.i.i, align 8
  %this1.i.i = load %"class.Kalmar::__index_leaf"*, %"class.Kalmar::__index_leaf"** %this.addr.i.i, align 8
  %__idx.i.i = getelementptr inbounds %"class.Kalmar::__index_leaf", %"class.Kalmar::__index_leaf"* %this1.i.i, i32 0, i32 0
  %7 = load i32, i32* %__idx.i.i, align 4
  store %"class.Kalmar::__index_leaf"* %4, %"class.Kalmar::__index_leaf"** %this.addr.i14.i, align 8
  store i32 %7, i32* %__t.addr.i15.i, align 4
  %this1.i16.i = load %"class.Kalmar::__index_leaf"*, %"class.Kalmar::__index_leaf"** %this.addr.i14.i, align 8
  %8 = load i32, i32* %__t.addr.i15.i, align 4
  %__idx.i17.i = getelementptr inbounds %"class.Kalmar::__index_leaf", %"class.Kalmar::__index_leaf"* %this1.i16.i, i32 0, i32 0
  %9 = load i32, i32* %__idx.i17.i, align 4
  %div.i18.i = sdiv i32 %9, %8
  store i32 %div.i18.i, i32* %__idx.i17.i, align 4
  %10 = bitcast %"class.Kalmar::__index_leaf"* %agg.tmp.i to i8*
  %11 = bitcast %"class.Kalmar::__index_leaf"* %this1.i16.i to i8*
  call void @llvm.memcpy.p0i8.p0i8.i64(i8* %10, i8* %11, i64 8, i32 4, i1 false)
  %12 = bitcast %"struct.Kalmar::index_impl.1"* %this1.i to i8*
  %add.ptr.i = getelementptr inbounds i8, i8* %12, i64 8
  %13 = bitcast i8* %add.ptr.i to %"class.Kalmar::__index_leaf.2"*
  %14 = load %"struct.Kalmar::index_impl.1"*, %"struct.Kalmar::index_impl.1"** %__t.addr.i, align 8
  %15 = bitcast %"struct.Kalmar::index_impl.1"* %14 to i8*
  %add.ptr4.i = getelementptr inbounds i8, i8* %15, i64 8
  %16 = bitcast i8* %add.ptr4.i to %"class.Kalmar::__index_leaf.2"*
  store %"class.Kalmar::__index_leaf.2"* %16, %"class.Kalmar::__index_leaf.2"** %this.addr.i11.i, align 8
  %this1.i12.i = load %"class.Kalmar::__index_leaf.2"*, %"class.Kalmar::__index_leaf.2"** %this.addr.i11.i, align 8
  %__idx.i13.i = getelementptr inbounds %"class.Kalmar::__index_leaf.2", %"class.Kalmar::__index_leaf.2"* %this1.i12.i, i32 0, i32 0
  %17 = load i32, i32* %__idx.i13.i, align 4
  store %"class.Kalmar::__index_leaf.2"* %13, %"class.Kalmar::__index_leaf.2"** %this.addr.i8.i, align 8
  store i32 %17, i32* %__t.addr.i.i, align 4
  %this1.i9.i = load %"class.Kalmar::__index_leaf.2"*, %"class.Kalmar::__index_leaf.2"** %this.addr.i8.i, align 8
  %18 = load i32, i32* %__t.addr.i.i, align 4
  %__idx.i10.i = getelementptr inbounds %"class.Kalmar::__index_leaf.2", %"class.Kalmar::__index_leaf.2"* %this1.i9.i, i32 0, i32 0
  %19 = load i32, i32* %__idx.i10.i, align 4
  %div.i.i = sdiv i32 %19, %18
  store i32 %div.i.i, i32* %__idx.i10.i, align 4
  %20 = bitcast %"class.Kalmar::__index_leaf.2"* %agg.tmp3.i to i8*
  %21 = bitcast %"class.Kalmar::__index_leaf.2"* %this1.i9.i to i8*
  call void @llvm.memcpy.p0i8.p0i8.i64(i8* %20, i8* %21, i64 8, i32 4, i1 false)
  %22 = bitcast %"class.Kalmar::__index_leaf"* %agg.tmp.i to i64*
  %23 = load i64, i64* %22, align 4
  %24 = bitcast %"class.Kalmar::__index_leaf.2"* %agg.tmp3.i to i64*
  %25 = load i64, i64* %24, align 4
  %26 = bitcast %"class.Kalmar::__index_leaf"* %1 to i64*
  store i64 %23, i64* %26, align 4
  %27 = bitcast %"class.Kalmar::__index_leaf.2"* %2 to i64*
  store i64 %25, i64* %27, align 4
  store %"struct.Kalmar::index_impl.1"* %this1.i, %"struct.Kalmar::index_impl.1"** %this.addr.i7.i, align 8
  %this2.i.i = load %"struct.Kalmar::index_impl.1"*, %"struct.Kalmar::index_impl.1"** %this.addr.i7.i, align 8
  ret %"class.Kalmar::index.0"* %this1
}

; Function Attrs: alwaysinline uwtable
define weak_odr dereferenceable(16) %"class.Kalmar::index.0"* @_ZN6Kalmar5indexILi2EErMERKS1_(%"class.Kalmar::index.0"* %this, %"class.Kalmar::index.0"* dereferenceable(16) %__r) #4 align 2 {
  %this.addr.i14.i = alloca %"class.Kalmar::__index_leaf"*, align 8
  %__t.addr.i15.i = alloca i32, align 4
  %this.addr.i11.i = alloca %"class.Kalmar::__index_leaf.2"*, align 8
  %this.addr.i8.i = alloca %"class.Kalmar::__index_leaf.2"*, align 8
  %__t.addr.i.i = alloca i32, align 4
  %1 = alloca %"class.Kalmar::__index_leaf", align 4
  %2 = alloca %"class.Kalmar::__index_leaf.2", align 4
  %this.addr.i7.i = alloca %"struct.Kalmar::index_impl.1"*, align 8
  %this.addr.i.i = alloca %"class.Kalmar::__index_leaf"*, align 8
  %this.addr.i = alloca %"struct.Kalmar::index_impl.1"*, align 8
  %__t.addr.i = alloca %"struct.Kalmar::index_impl.1"*, align 8
  %agg.tmp.i = alloca %"class.Kalmar::__index_leaf", align 4
  %agg.tmp3.i = alloca %"class.Kalmar::__index_leaf.2", align 4
  %this.addr = alloca %"class.Kalmar::index.0"*, align 8
  %__r.addr = alloca %"class.Kalmar::index.0"*, align 8
  store %"class.Kalmar::index.0"* %this, %"class.Kalmar::index.0"** %this.addr, align 8
  store %"class.Kalmar::index.0"* %__r, %"class.Kalmar::index.0"** %__r.addr, align 8
  %this1 = load %"class.Kalmar::index.0"*, %"class.Kalmar::index.0"** %this.addr, align 8
  %base_ = getelementptr inbounds %"class.Kalmar::index.0", %"class.Kalmar::index.0"* %this1, i32 0, i32 0
  %3 = load %"class.Kalmar::index.0"*, %"class.Kalmar::index.0"** %__r.addr, align 8
  %base_2 = getelementptr inbounds %"class.Kalmar::index.0", %"class.Kalmar::index.0"* %3, i32 0, i32 0
  store %"struct.Kalmar::index_impl.1"* %base_, %"struct.Kalmar::index_impl.1"** %this.addr.i, align 8
  store %"struct.Kalmar::index_impl.1"* %base_2, %"struct.Kalmar::index_impl.1"** %__t.addr.i, align 8
  %this1.i = load %"struct.Kalmar::index_impl.1"*, %"struct.Kalmar::index_impl.1"** %this.addr.i, align 8
  %4 = bitcast %"struct.Kalmar::index_impl.1"* %this1.i to %"class.Kalmar::__index_leaf"*
  %5 = load %"struct.Kalmar::index_impl.1"*, %"struct.Kalmar::index_impl.1"** %__t.addr.i, align 8
  %6 = bitcast %"struct.Kalmar::index_impl.1"* %5 to %"class.Kalmar::__index_leaf"*
  store %"class.Kalmar::__index_leaf"* %6, %"class.Kalmar::__index_leaf"** %this.addr.i.i, align 8
  %this1.i.i = load %"class.Kalmar::__index_leaf"*, %"class.Kalmar::__index_leaf"** %this.addr.i.i, align 8
  %__idx.i.i = getelementptr inbounds %"class.Kalmar::__index_leaf", %"class.Kalmar::__index_leaf"* %this1.i.i, i32 0, i32 0
  %7 = load i32, i32* %__idx.i.i, align 4
  store %"class.Kalmar::__index_leaf"* %4, %"class.Kalmar::__index_leaf"** %this.addr.i14.i, align 8
  store i32 %7, i32* %__t.addr.i15.i, align 4
  %this1.i16.i = load %"class.Kalmar::__index_leaf"*, %"class.Kalmar::__index_leaf"** %this.addr.i14.i, align 8
  %8 = load i32, i32* %__t.addr.i15.i, align 4
  %__idx.i17.i = getelementptr inbounds %"class.Kalmar::__index_leaf", %"class.Kalmar::__index_leaf"* %this1.i16.i, i32 0, i32 0
  %9 = load i32, i32* %__idx.i17.i, align 4
  %rem.i18.i = srem i32 %9, %8
  store i32 %rem.i18.i, i32* %__idx.i17.i, align 4
  %10 = bitcast %"class.Kalmar::__index_leaf"* %agg.tmp.i to i8*
  %11 = bitcast %"class.Kalmar::__index_leaf"* %this1.i16.i to i8*
  call void @llvm.memcpy.p0i8.p0i8.i64(i8* %10, i8* %11, i64 8, i32 4, i1 false)
  %12 = bitcast %"struct.Kalmar::index_impl.1"* %this1.i to i8*
  %add.ptr.i = getelementptr inbounds i8, i8* %12, i64 8
  %13 = bitcast i8* %add.ptr.i to %"class.Kalmar::__index_leaf.2"*
  %14 = load %"struct.Kalmar::index_impl.1"*, %"struct.Kalmar::index_impl.1"** %__t.addr.i, align 8
  %15 = bitcast %"struct.Kalmar::index_impl.1"* %14 to i8*
  %add.ptr4.i = getelementptr inbounds i8, i8* %15, i64 8
  %16 = bitcast i8* %add.ptr4.i to %"class.Kalmar::__index_leaf.2"*
  store %"class.Kalmar::__index_leaf.2"* %16, %"class.Kalmar::__index_leaf.2"** %this.addr.i11.i, align 8
  %this1.i12.i = load %"class.Kalmar::__index_leaf.2"*, %"class.Kalmar::__index_leaf.2"** %this.addr.i11.i, align 8
  %__idx.i13.i = getelementptr inbounds %"class.Kalmar::__index_leaf.2", %"class.Kalmar::__index_leaf.2"* %this1.i12.i, i32 0, i32 0
  %17 = load i32, i32* %__idx.i13.i, align 4
  store %"class.Kalmar::__index_leaf.2"* %13, %"class.Kalmar::__index_leaf.2"** %this.addr.i8.i, align 8
  store i32 %17, i32* %__t.addr.i.i, align 4
  %this1.i9.i = load %"class.Kalmar::__index_leaf.2"*, %"class.Kalmar::__index_leaf.2"** %this.addr.i8.i, align 8
  %18 = load i32, i32* %__t.addr.i.i, align 4
  %__idx.i10.i = getelementptr inbounds %"class.Kalmar::__index_leaf.2", %"class.Kalmar::__index_leaf.2"* %this1.i9.i, i32 0, i32 0
  %19 = load i32, i32* %__idx.i10.i, align 4
  %rem.i.i = srem i32 %19, %18
  store i32 %rem.i.i, i32* %__idx.i10.i, align 4
  %20 = bitcast %"class.Kalmar::__index_leaf.2"* %agg.tmp3.i to i8*
  %21 = bitcast %"class.Kalmar::__index_leaf.2"* %this1.i9.i to i8*
  call void @llvm.memcpy.p0i8.p0i8.i64(i8* %20, i8* %21, i64 8, i32 4, i1 false)
  %22 = bitcast %"class.Kalmar::__index_leaf"* %agg.tmp.i to i64*
  %23 = load i64, i64* %22, align 4
  %24 = bitcast %"class.Kalmar::__index_leaf.2"* %agg.tmp3.i to i64*
  %25 = load i64, i64* %24, align 4
  %26 = bitcast %"class.Kalmar::__index_leaf"* %1 to i64*
  store i64 %23, i64* %26, align 4
  %27 = bitcast %"class.Kalmar::__index_leaf.2"* %2 to i64*
  store i64 %25, i64* %27, align 4
  store %"struct.Kalmar::index_impl.1"* %this1.i, %"struct.Kalmar::index_impl.1"** %this.addr.i7.i, align 8
  %this2.i.i = load %"struct.Kalmar::index_impl.1"*, %"struct.Kalmar::index_impl.1"** %this.addr.i7.i, align 8
  ret %"class.Kalmar::index.0"* %this1
}

; Function Attrs: alwaysinline uwtable
define weak_odr dereferenceable(16) %"class.Kalmar::index.0"* @_ZN6Kalmar5indexILi2EEpLEi(%"class.Kalmar::index.0"* %this, i32 %value) #4 align 2 {
  %this.addr.i5.i = alloca %"class.Kalmar::__index_leaf.2"*, align 8
  %__t.addr.i6.i = alloca i32, align 4
  %1 = alloca %"class.Kalmar::__index_leaf", align 4
  %2 = alloca %"class.Kalmar::__index_leaf.2", align 4
  %this.addr.i4.i = alloca %"struct.Kalmar::index_impl.1"*, align 8
  %this.addr.i.i = alloca %"class.Kalmar::__index_leaf"*, align 8
  %__t.addr.i.i = alloca i32, align 4
  %this.addr.i = alloca %"struct.Kalmar::index_impl.1"*, align 8
  %__t.addr.i = alloca i32, align 4
  %agg.tmp.i = alloca %"class.Kalmar::__index_leaf", align 4
  %agg.tmp2.i = alloca %"class.Kalmar::__index_leaf.2", align 4
  %this.addr = alloca %"class.Kalmar::index.0"*, align 8
  %value.addr = alloca i32, align 4
  store %"class.Kalmar::index.0"* %this, %"class.Kalmar::index.0"** %this.addr, align 8
  store i32 %value, i32* %value.addr, align 4
  %this1 = load %"class.Kalmar::index.0"*, %"class.Kalmar::index.0"** %this.addr, align 8
  %base_ = getelementptr inbounds %"class.Kalmar::index.0", %"class.Kalmar::index.0"* %this1, i32 0, i32 0
  %3 = load i32, i32* %value.addr, align 4
  store %"struct.Kalmar::index_impl.1"* %base_, %"struct.Kalmar::index_impl.1"** %this.addr.i, align 8
  store i32 %3, i32* %__t.addr.i, align 4
  %this1.i = load %"struct.Kalmar::index_impl.1"*, %"struct.Kalmar::index_impl.1"** %this.addr.i, align 8
  %4 = bitcast %"struct.Kalmar::index_impl.1"* %this1.i to %"class.Kalmar::__index_leaf"*
  %5 = load i32, i32* %__t.addr.i, align 4
  store %"class.Kalmar::__index_leaf"* %4, %"class.Kalmar::__index_leaf"** %this.addr.i.i, align 8
  store i32 %5, i32* %__t.addr.i.i, align 4
  %this1.i.i = load %"class.Kalmar::__index_leaf"*, %"class.Kalmar::__index_leaf"** %this.addr.i.i, align 8
  %6 = load i32, i32* %__t.addr.i.i, align 4
  %__idx.i.i = getelementptr inbounds %"class.Kalmar::__index_leaf", %"class.Kalmar::__index_leaf"* %this1.i.i, i32 0, i32 0
  %7 = load i32, i32* %__idx.i.i, align 4
  %add.i.i = add nsw i32 %7, %6
  store i32 %add.i.i, i32* %__idx.i.i, align 4
  %8 = bitcast %"class.Kalmar::__index_leaf"* %agg.tmp.i to i8*
  %9 = bitcast %"class.Kalmar::__index_leaf"* %this1.i.i to i8*
  call void @llvm.memcpy.p0i8.p0i8.i64(i8* %8, i8* %9, i64 8, i32 4, i1 false) #3
  %10 = bitcast %"struct.Kalmar::index_impl.1"* %this1.i to i8*
  %add.ptr.i = getelementptr inbounds i8, i8* %10, i64 8
  %11 = bitcast i8* %add.ptr.i to %"class.Kalmar::__index_leaf.2"*
  %12 = load i32, i32* %__t.addr.i, align 4
  store %"class.Kalmar::__index_leaf.2"* %11, %"class.Kalmar::__index_leaf.2"** %this.addr.i5.i, align 8
  store i32 %12, i32* %__t.addr.i6.i, align 4
  %this1.i7.i = load %"class.Kalmar::__index_leaf.2"*, %"class.Kalmar::__index_leaf.2"** %this.addr.i5.i, align 8
  %13 = load i32, i32* %__t.addr.i6.i, align 4
  %__idx.i8.i = getelementptr inbounds %"class.Kalmar::__index_leaf.2", %"class.Kalmar::__index_leaf.2"* %this1.i7.i, i32 0, i32 0
  %14 = load i32, i32* %__idx.i8.i, align 4
  %add.i9.i = add nsw i32 %14, %13
  store i32 %add.i9.i, i32* %__idx.i8.i, align 4
  %15 = bitcast %"class.Kalmar::__index_leaf.2"* %agg.tmp2.i to i8*
  %16 = bitcast %"class.Kalmar::__index_leaf.2"* %this1.i7.i to i8*
  call void @llvm.memcpy.p0i8.p0i8.i64(i8* %15, i8* %16, i64 8, i32 4, i1 false) #3
  %17 = bitcast %"class.Kalmar::__index_leaf"* %agg.tmp.i to i64*
  %18 = load i64, i64* %17, align 4
  %19 = bitcast %"class.Kalmar::__index_leaf.2"* %agg.tmp2.i to i64*
  %20 = load i64, i64* %19, align 4
  %21 = bitcast %"class.Kalmar::__index_leaf"* %1 to i64*
  store i64 %18, i64* %21, align 4
  %22 = bitcast %"class.Kalmar::__index_leaf.2"* %2 to i64*
  store i64 %20, i64* %22, align 4
  store %"struct.Kalmar::index_impl.1"* %this1.i, %"struct.Kalmar::index_impl.1"** %this.addr.i4.i, align 8
  %this2.i.i = load %"struct.Kalmar::index_impl.1"*, %"struct.Kalmar::index_impl.1"** %this.addr.i4.i, align 8
  ret %"class.Kalmar::index.0"* %this1
}

; Function Attrs: alwaysinline uwtable
define weak_odr dereferenceable(16) %"class.Kalmar::index.0"* @_ZN6Kalmar5indexILi2EEmIEi(%"class.Kalmar::index.0"* %this, i32 %value) #4 align 2 {
  %this.addr.i5.i = alloca %"class.Kalmar::__index_leaf.2"*, align 8
  %__t.addr.i6.i = alloca i32, align 4
  %1 = alloca %"class.Kalmar::__index_leaf", align 4
  %2 = alloca %"class.Kalmar::__index_leaf.2", align 4
  %this.addr.i4.i = alloca %"struct.Kalmar::index_impl.1"*, align 8
  %this.addr.i.i = alloca %"class.Kalmar::__index_leaf"*, align 8
  %__t.addr.i.i = alloca i32, align 4
  %this.addr.i = alloca %"struct.Kalmar::index_impl.1"*, align 8
  %__t.addr.i = alloca i32, align 4
  %agg.tmp.i = alloca %"class.Kalmar::__index_leaf", align 4
  %agg.tmp2.i = alloca %"class.Kalmar::__index_leaf.2", align 4
  %this.addr = alloca %"class.Kalmar::index.0"*, align 8
  %value.addr = alloca i32, align 4
  store %"class.Kalmar::index.0"* %this, %"class.Kalmar::index.0"** %this.addr, align 8
  store i32 %value, i32* %value.addr, align 4
  %this1 = load %"class.Kalmar::index.0"*, %"class.Kalmar::index.0"** %this.addr, align 8
  %base_ = getelementptr inbounds %"class.Kalmar::index.0", %"class.Kalmar::index.0"* %this1, i32 0, i32 0
  %3 = load i32, i32* %value.addr, align 4
  store %"struct.Kalmar::index_impl.1"* %base_, %"struct.Kalmar::index_impl.1"** %this.addr.i, align 8
  store i32 %3, i32* %__t.addr.i, align 4
  %this1.i = load %"struct.Kalmar::index_impl.1"*, %"struct.Kalmar::index_impl.1"** %this.addr.i, align 8
  %4 = bitcast %"struct.Kalmar::index_impl.1"* %this1.i to %"class.Kalmar::__index_leaf"*
  %5 = load i32, i32* %__t.addr.i, align 4
  store %"class.Kalmar::__index_leaf"* %4, %"class.Kalmar::__index_leaf"** %this.addr.i.i, align 8
  store i32 %5, i32* %__t.addr.i.i, align 4
  %this1.i.i = load %"class.Kalmar::__index_leaf"*, %"class.Kalmar::__index_leaf"** %this.addr.i.i, align 8
  %6 = load i32, i32* %__t.addr.i.i, align 4
  %__idx.i.i = getelementptr inbounds %"class.Kalmar::__index_leaf", %"class.Kalmar::__index_leaf"* %this1.i.i, i32 0, i32 0
  %7 = load i32, i32* %__idx.i.i, align 4
  %sub.i.i = sub nsw i32 %7, %6
  store i32 %sub.i.i, i32* %__idx.i.i, align 4
  %8 = bitcast %"class.Kalmar::__index_leaf"* %agg.tmp.i to i8*
  %9 = bitcast %"class.Kalmar::__index_leaf"* %this1.i.i to i8*
  call void @llvm.memcpy.p0i8.p0i8.i64(i8* %8, i8* %9, i64 8, i32 4, i1 false) #3
  %10 = bitcast %"struct.Kalmar::index_impl.1"* %this1.i to i8*
  %add.ptr.i = getelementptr inbounds i8, i8* %10, i64 8
  %11 = bitcast i8* %add.ptr.i to %"class.Kalmar::__index_leaf.2"*
  %12 = load i32, i32* %__t.addr.i, align 4
  store %"class.Kalmar::__index_leaf.2"* %11, %"class.Kalmar::__index_leaf.2"** %this.addr.i5.i, align 8
  store i32 %12, i32* %__t.addr.i6.i, align 4
  %this1.i7.i = load %"class.Kalmar::__index_leaf.2"*, %"class.Kalmar::__index_leaf.2"** %this.addr.i5.i, align 8
  %13 = load i32, i32* %__t.addr.i6.i, align 4
  %__idx.i8.i = getelementptr inbounds %"class.Kalmar::__index_leaf.2", %"class.Kalmar::__index_leaf.2"* %this1.i7.i, i32 0, i32 0
  %14 = load i32, i32* %__idx.i8.i, align 4
  %sub.i9.i = sub nsw i32 %14, %13
  store i32 %sub.i9.i, i32* %__idx.i8.i, align 4
  %15 = bitcast %"class.Kalmar::__index_leaf.2"* %agg.tmp2.i to i8*
  %16 = bitcast %"class.Kalmar::__index_leaf.2"* %this1.i7.i to i8*
  call void @llvm.memcpy.p0i8.p0i8.i64(i8* %15, i8* %16, i64 8, i32 4, i1 false) #3
  %17 = bitcast %"class.Kalmar::__index_leaf"* %agg.tmp.i to i64*
  %18 = load i64, i64* %17, align 4
  %19 = bitcast %"class.Kalmar::__index_leaf.2"* %agg.tmp2.i to i64*
  %20 = load i64, i64* %19, align 4
  %21 = bitcast %"class.Kalmar::__index_leaf"* %1 to i64*
  store i64 %18, i64* %21, align 4
  %22 = bitcast %"class.Kalmar::__index_leaf.2"* %2 to i64*
  store i64 %20, i64* %22, align 4
  store %"struct.Kalmar::index_impl.1"* %this1.i, %"struct.Kalmar::index_impl.1"** %this.addr.i4.i, align 8
  %this2.i.i = load %"struct.Kalmar::index_impl.1"*, %"struct.Kalmar::index_impl.1"** %this.addr.i4.i, align 8
  ret %"class.Kalmar::index.0"* %this1
}

; Function Attrs: alwaysinline uwtable
define weak_odr dereferenceable(16) %"class.Kalmar::index.0"* @_ZN6Kalmar5indexILi2EEmLEi(%"class.Kalmar::index.0"* %this, i32 %value) #4 align 2 {
  %this.addr.i5.i = alloca %"class.Kalmar::__index_leaf.2"*, align 8
  %__t.addr.i6.i = alloca i32, align 4
  %1 = alloca %"class.Kalmar::__index_leaf", align 4
  %2 = alloca %"class.Kalmar::__index_leaf.2", align 4
  %this.addr.i4.i = alloca %"struct.Kalmar::index_impl.1"*, align 8
  %this.addr.i.i = alloca %"class.Kalmar::__index_leaf"*, align 8
  %__t.addr.i.i = alloca i32, align 4
  %this.addr.i = alloca %"struct.Kalmar::index_impl.1"*, align 8
  %__t.addr.i = alloca i32, align 4
  %agg.tmp.i = alloca %"class.Kalmar::__index_leaf", align 4
  %agg.tmp2.i = alloca %"class.Kalmar::__index_leaf.2", align 4
  %this.addr = alloca %"class.Kalmar::index.0"*, align 8
  %value.addr = alloca i32, align 4
  store %"class.Kalmar::index.0"* %this, %"class.Kalmar::index.0"** %this.addr, align 8
  store i32 %value, i32* %value.addr, align 4
  %this1 = load %"class.Kalmar::index.0"*, %"class.Kalmar::index.0"** %this.addr, align 8
  %base_ = getelementptr inbounds %"class.Kalmar::index.0", %"class.Kalmar::index.0"* %this1, i32 0, i32 0
  %3 = load i32, i32* %value.addr, align 4
  store %"struct.Kalmar::index_impl.1"* %base_, %"struct.Kalmar::index_impl.1"** %this.addr.i, align 8
  store i32 %3, i32* %__t.addr.i, align 4
  %this1.i = load %"struct.Kalmar::index_impl.1"*, %"struct.Kalmar::index_impl.1"** %this.addr.i, align 8
  %4 = bitcast %"struct.Kalmar::index_impl.1"* %this1.i to %"class.Kalmar::__index_leaf"*
  %5 = load i32, i32* %__t.addr.i, align 4
  store %"class.Kalmar::__index_leaf"* %4, %"class.Kalmar::__index_leaf"** %this.addr.i.i, align 8
  store i32 %5, i32* %__t.addr.i.i, align 4
  %this1.i.i = load %"class.Kalmar::__index_leaf"*, %"class.Kalmar::__index_leaf"** %this.addr.i.i, align 8
  %6 = load i32, i32* %__t.addr.i.i, align 4
  %__idx.i.i = getelementptr inbounds %"class.Kalmar::__index_leaf", %"class.Kalmar::__index_leaf"* %this1.i.i, i32 0, i32 0
  %7 = load i32, i32* %__idx.i.i, align 4
  %mul.i.i = mul nsw i32 %7, %6
  store i32 %mul.i.i, i32* %__idx.i.i, align 4
  %8 = bitcast %"class.Kalmar::__index_leaf"* %agg.tmp.i to i8*
  %9 = bitcast %"class.Kalmar::__index_leaf"* %this1.i.i to i8*
  call void @llvm.memcpy.p0i8.p0i8.i64(i8* %8, i8* %9, i64 8, i32 4, i1 false) #3
  %10 = bitcast %"struct.Kalmar::index_impl.1"* %this1.i to i8*
  %add.ptr.i = getelementptr inbounds i8, i8* %10, i64 8
  %11 = bitcast i8* %add.ptr.i to %"class.Kalmar::__index_leaf.2"*
  %12 = load i32, i32* %__t.addr.i, align 4
  store %"class.Kalmar::__index_leaf.2"* %11, %"class.Kalmar::__index_leaf.2"** %this.addr.i5.i, align 8
  store i32 %12, i32* %__t.addr.i6.i, align 4
  %this1.i7.i = load %"class.Kalmar::__index_leaf.2"*, %"class.Kalmar::__index_leaf.2"** %this.addr.i5.i, align 8
  %13 = load i32, i32* %__t.addr.i6.i, align 4
  %__idx.i8.i = getelementptr inbounds %"class.Kalmar::__index_leaf.2", %"class.Kalmar::__index_leaf.2"* %this1.i7.i, i32 0, i32 0
  %14 = load i32, i32* %__idx.i8.i, align 4
  %mul.i9.i = mul nsw i32 %14, %13
  store i32 %mul.i9.i, i32* %__idx.i8.i, align 4
  %15 = bitcast %"class.Kalmar::__index_leaf.2"* %agg.tmp2.i to i8*
  %16 = bitcast %"class.Kalmar::__index_leaf.2"* %this1.i7.i to i8*
  call void @llvm.memcpy.p0i8.p0i8.i64(i8* %15, i8* %16, i64 8, i32 4, i1 false) #3
  %17 = bitcast %"class.Kalmar::__index_leaf"* %agg.tmp.i to i64*
  %18 = load i64, i64* %17, align 4
  %19 = bitcast %"class.Kalmar::__index_leaf.2"* %agg.tmp2.i to i64*
  %20 = load i64, i64* %19, align 4
  %21 = bitcast %"class.Kalmar::__index_leaf"* %1 to i64*
  store i64 %18, i64* %21, align 4
  %22 = bitcast %"class.Kalmar::__index_leaf.2"* %2 to i64*
  store i64 %20, i64* %22, align 4
  store %"struct.Kalmar::index_impl.1"* %this1.i, %"struct.Kalmar::index_impl.1"** %this.addr.i4.i, align 8
  %this2.i.i = load %"struct.Kalmar::index_impl.1"*, %"struct.Kalmar::index_impl.1"** %this.addr.i4.i, align 8
  ret %"class.Kalmar::index.0"* %this1
}

; Function Attrs: alwaysinline uwtable
define weak_odr dereferenceable(16) %"class.Kalmar::index.0"* @_ZN6Kalmar5indexILi2EEdVEi(%"class.Kalmar::index.0"* %this, i32 %value) #4 align 2 {
  %this.addr.i5.i = alloca %"class.Kalmar::__index_leaf.2"*, align 8
  %__t.addr.i6.i = alloca i32, align 4
  %1 = alloca %"class.Kalmar::__index_leaf", align 4
  %2 = alloca %"class.Kalmar::__index_leaf.2", align 4
  %this.addr.i4.i = alloca %"struct.Kalmar::index_impl.1"*, align 8
  %this.addr.i.i = alloca %"class.Kalmar::__index_leaf"*, align 8
  %__t.addr.i.i = alloca i32, align 4
  %this.addr.i = alloca %"struct.Kalmar::index_impl.1"*, align 8
  %__t.addr.i = alloca i32, align 4
  %agg.tmp.i = alloca %"class.Kalmar::__index_leaf", align 4
  %agg.tmp2.i = alloca %"class.Kalmar::__index_leaf.2", align 4
  %this.addr = alloca %"class.Kalmar::index.0"*, align 8
  %value.addr = alloca i32, align 4
  store %"class.Kalmar::index.0"* %this, %"class.Kalmar::index.0"** %this.addr, align 8
  store i32 %value, i32* %value.addr, align 4
  %this1 = load %"class.Kalmar::index.0"*, %"class.Kalmar::index.0"** %this.addr, align 8
  %base_ = getelementptr inbounds %"class.Kalmar::index.0", %"class.Kalmar::index.0"* %this1, i32 0, i32 0
  %3 = load i32, i32* %value.addr, align 4
  store %"struct.Kalmar::index_impl.1"* %base_, %"struct.Kalmar::index_impl.1"** %this.addr.i, align 8
  store i32 %3, i32* %__t.addr.i, align 4
  %this1.i = load %"struct.Kalmar::index_impl.1"*, %"struct.Kalmar::index_impl.1"** %this.addr.i, align 8
  %4 = bitcast %"struct.Kalmar::index_impl.1"* %this1.i to %"class.Kalmar::__index_leaf"*
  %5 = load i32, i32* %__t.addr.i, align 4
  store %"class.Kalmar::__index_leaf"* %4, %"class.Kalmar::__index_leaf"** %this.addr.i.i, align 8
  store i32 %5, i32* %__t.addr.i.i, align 4
  %this1.i.i = load %"class.Kalmar::__index_leaf"*, %"class.Kalmar::__index_leaf"** %this.addr.i.i, align 8
  %6 = load i32, i32* %__t.addr.i.i, align 4
  %__idx.i.i = getelementptr inbounds %"class.Kalmar::__index_leaf", %"class.Kalmar::__index_leaf"* %this1.i.i, i32 0, i32 0
  %7 = load i32, i32* %__idx.i.i, align 4
  %div.i.i = sdiv i32 %7, %6
  store i32 %div.i.i, i32* %__idx.i.i, align 4
  %8 = bitcast %"class.Kalmar::__index_leaf"* %agg.tmp.i to i8*
  %9 = bitcast %"class.Kalmar::__index_leaf"* %this1.i.i to i8*
  call void @llvm.memcpy.p0i8.p0i8.i64(i8* %8, i8* %9, i64 8, i32 4, i1 false) #3
  %10 = bitcast %"struct.Kalmar::index_impl.1"* %this1.i to i8*
  %add.ptr.i = getelementptr inbounds i8, i8* %10, i64 8
  %11 = bitcast i8* %add.ptr.i to %"class.Kalmar::__index_leaf.2"*
  %12 = load i32, i32* %__t.addr.i, align 4
  store %"class.Kalmar::__index_leaf.2"* %11, %"class.Kalmar::__index_leaf.2"** %this.addr.i5.i, align 8
  store i32 %12, i32* %__t.addr.i6.i, align 4
  %this1.i7.i = load %"class.Kalmar::__index_leaf.2"*, %"class.Kalmar::__index_leaf.2"** %this.addr.i5.i, align 8
  %13 = load i32, i32* %__t.addr.i6.i, align 4
  %__idx.i8.i = getelementptr inbounds %"class.Kalmar::__index_leaf.2", %"class.Kalmar::__index_leaf.2"* %this1.i7.i, i32 0, i32 0
  %14 = load i32, i32* %__idx.i8.i, align 4
  %div.i9.i = sdiv i32 %14, %13
  store i32 %div.i9.i, i32* %__idx.i8.i, align 4
  %15 = bitcast %"class.Kalmar::__index_leaf.2"* %agg.tmp2.i to i8*
  %16 = bitcast %"class.Kalmar::__index_leaf.2"* %this1.i7.i to i8*
  call void @llvm.memcpy.p0i8.p0i8.i64(i8* %15, i8* %16, i64 8, i32 4, i1 false) #3
  %17 = bitcast %"class.Kalmar::__index_leaf"* %agg.tmp.i to i64*
  %18 = load i64, i64* %17, align 4
  %19 = bitcast %"class.Kalmar::__index_leaf.2"* %agg.tmp2.i to i64*
  %20 = load i64, i64* %19, align 4
  %21 = bitcast %"class.Kalmar::__index_leaf"* %1 to i64*
  store i64 %18, i64* %21, align 4
  %22 = bitcast %"class.Kalmar::__index_leaf.2"* %2 to i64*
  store i64 %20, i64* %22, align 4
  store %"struct.Kalmar::index_impl.1"* %this1.i, %"struct.Kalmar::index_impl.1"** %this.addr.i4.i, align 8
  %this2.i.i = load %"struct.Kalmar::index_impl.1"*, %"struct.Kalmar::index_impl.1"** %this.addr.i4.i, align 8
  ret %"class.Kalmar::index.0"* %this1
}

; Function Attrs: alwaysinline uwtable
define weak_odr dereferenceable(16) %"class.Kalmar::index.0"* @_ZN6Kalmar5indexILi2EErMEi(%"class.Kalmar::index.0"* %this, i32 %value) #4 align 2 {
  %this.addr.i5.i = alloca %"class.Kalmar::__index_leaf.2"*, align 8
  %__t.addr.i6.i = alloca i32, align 4
  %1 = alloca %"class.Kalmar::__index_leaf", align 4
  %2 = alloca %"class.Kalmar::__index_leaf.2", align 4
  %this.addr.i4.i = alloca %"struct.Kalmar::index_impl.1"*, align 8
  %this.addr.i.i = alloca %"class.Kalmar::__index_leaf"*, align 8
  %__t.addr.i.i = alloca i32, align 4
  %this.addr.i = alloca %"struct.Kalmar::index_impl.1"*, align 8
  %__t.addr.i = alloca i32, align 4
  %agg.tmp.i = alloca %"class.Kalmar::__index_leaf", align 4
  %agg.tmp2.i = alloca %"class.Kalmar::__index_leaf.2", align 4
  %this.addr = alloca %"class.Kalmar::index.0"*, align 8
  %value.addr = alloca i32, align 4
  store %"class.Kalmar::index.0"* %this, %"class.Kalmar::index.0"** %this.addr, align 8
  store i32 %value, i32* %value.addr, align 4
  %this1 = load %"class.Kalmar::index.0"*, %"class.Kalmar::index.0"** %this.addr, align 8
  %base_ = getelementptr inbounds %"class.Kalmar::index.0", %"class.Kalmar::index.0"* %this1, i32 0, i32 0
  %3 = load i32, i32* %value.addr, align 4
  store %"struct.Kalmar::index_impl.1"* %base_, %"struct.Kalmar::index_impl.1"** %this.addr.i, align 8
  store i32 %3, i32* %__t.addr.i, align 4
  %this1.i = load %"struct.Kalmar::index_impl.1"*, %"struct.Kalmar::index_impl.1"** %this.addr.i, align 8
  %4 = bitcast %"struct.Kalmar::index_impl.1"* %this1.i to %"class.Kalmar::__index_leaf"*
  %5 = load i32, i32* %__t.addr.i, align 4
  store %"class.Kalmar::__index_leaf"* %4, %"class.Kalmar::__index_leaf"** %this.addr.i.i, align 8
  store i32 %5, i32* %__t.addr.i.i, align 4
  %this1.i.i = load %"class.Kalmar::__index_leaf"*, %"class.Kalmar::__index_leaf"** %this.addr.i.i, align 8
  %6 = load i32, i32* %__t.addr.i.i, align 4
  %__idx.i.i = getelementptr inbounds %"class.Kalmar::__index_leaf", %"class.Kalmar::__index_leaf"* %this1.i.i, i32 0, i32 0
  %7 = load i32, i32* %__idx.i.i, align 4
  %rem.i.i = srem i32 %7, %6
  store i32 %rem.i.i, i32* %__idx.i.i, align 4
  %8 = bitcast %"class.Kalmar::__index_leaf"* %agg.tmp.i to i8*
  %9 = bitcast %"class.Kalmar::__index_leaf"* %this1.i.i to i8*
  call void @llvm.memcpy.p0i8.p0i8.i64(i8* %8, i8* %9, i64 8, i32 4, i1 false) #3
  %10 = bitcast %"struct.Kalmar::index_impl.1"* %this1.i to i8*
  %add.ptr.i = getelementptr inbounds i8, i8* %10, i64 8
  %11 = bitcast i8* %add.ptr.i to %"class.Kalmar::__index_leaf.2"*
  %12 = load i32, i32* %__t.addr.i, align 4
  store %"class.Kalmar::__index_leaf.2"* %11, %"class.Kalmar::__index_leaf.2"** %this.addr.i5.i, align 8
  store i32 %12, i32* %__t.addr.i6.i, align 4
  %this1.i7.i = load %"class.Kalmar::__index_leaf.2"*, %"class.Kalmar::__index_leaf.2"** %this.addr.i5.i, align 8
  %13 = load i32, i32* %__t.addr.i6.i, align 4
  %__idx.i8.i = getelementptr inbounds %"class.Kalmar::__index_leaf.2", %"class.Kalmar::__index_leaf.2"* %this1.i7.i, i32 0, i32 0
  %14 = load i32, i32* %__idx.i8.i, align 4
  %rem.i9.i = srem i32 %14, %13
  store i32 %rem.i9.i, i32* %__idx.i8.i, align 4
  %15 = bitcast %"class.Kalmar::__index_leaf.2"* %agg.tmp2.i to i8*
  %16 = bitcast %"class.Kalmar::__index_leaf.2"* %this1.i7.i to i8*
  call void @llvm.memcpy.p0i8.p0i8.i64(i8* %15, i8* %16, i64 8, i32 4, i1 false) #3
  %17 = bitcast %"class.Kalmar::__index_leaf"* %agg.tmp.i to i64*
  %18 = load i64, i64* %17, align 4
  %19 = bitcast %"class.Kalmar::__index_leaf.2"* %agg.tmp2.i to i64*
  %20 = load i64, i64* %19, align 4
  %21 = bitcast %"class.Kalmar::__index_leaf"* %1 to i64*
  store i64 %18, i64* %21, align 4
  %22 = bitcast %"class.Kalmar::__index_leaf.2"* %2 to i64*
  store i64 %20, i64* %22, align 4
  store %"struct.Kalmar::index_impl.1"* %this1.i, %"struct.Kalmar::index_impl.1"** %this.addr.i4.i, align 8
  %this2.i.i = load %"struct.Kalmar::index_impl.1"*, %"struct.Kalmar::index_impl.1"** %this.addr.i4.i, align 8
  ret %"class.Kalmar::index.0"* %this1
}

; Function Attrs: alwaysinline uwtable
define weak_odr dereferenceable(16) %"class.Kalmar::index.0"* @_ZN6Kalmar5indexILi2EEppEv(%"class.Kalmar::index.0"* %this) #4 align 2 {
  %this.addr.i5.i = alloca %"class.Kalmar::__index_leaf.2"*, align 8
  %__t.addr.i6.i = alloca i32, align 4
  %1 = alloca %"class.Kalmar::__index_leaf", align 4
  %2 = alloca %"class.Kalmar::__index_leaf.2", align 4
  %this.addr.i4.i = alloca %"struct.Kalmar::index_impl.1"*, align 8
  %this.addr.i.i = alloca %"class.Kalmar::__index_leaf"*, align 8
  %__t.addr.i.i = alloca i32, align 4
  %this.addr.i = alloca %"struct.Kalmar::index_impl.1"*, align 8
  %__t.addr.i = alloca i32, align 4
  %agg.tmp.i = alloca %"class.Kalmar::__index_leaf", align 4
  %agg.tmp2.i = alloca %"class.Kalmar::__index_leaf.2", align 4
  %this.addr = alloca %"class.Kalmar::index.0"*, align 8
  store %"class.Kalmar::index.0"* %this, %"class.Kalmar::index.0"** %this.addr, align 8
  %this1 = load %"class.Kalmar::index.0"*, %"class.Kalmar::index.0"** %this.addr, align 8
  %base_ = getelementptr inbounds %"class.Kalmar::index.0", %"class.Kalmar::index.0"* %this1, i32 0, i32 0
  store %"struct.Kalmar::index_impl.1"* %base_, %"struct.Kalmar::index_impl.1"** %this.addr.i, align 8
  store i32 1, i32* %__t.addr.i, align 4
  %this1.i = load %"struct.Kalmar::index_impl.1"*, %"struct.Kalmar::index_impl.1"** %this.addr.i, align 8
  %3 = bitcast %"struct.Kalmar::index_impl.1"* %this1.i to %"class.Kalmar::__index_leaf"*
  %4 = load i32, i32* %__t.addr.i, align 4
  store %"class.Kalmar::__index_leaf"* %3, %"class.Kalmar::__index_leaf"** %this.addr.i.i, align 8
  store i32 %4, i32* %__t.addr.i.i, align 4
  %this1.i.i = load %"class.Kalmar::__index_leaf"*, %"class.Kalmar::__index_leaf"** %this.addr.i.i, align 8
  %5 = load i32, i32* %__t.addr.i.i, align 4
  %__idx.i.i = getelementptr inbounds %"class.Kalmar::__index_leaf", %"class.Kalmar::__index_leaf"* %this1.i.i, i32 0, i32 0
  %6 = load i32, i32* %__idx.i.i, align 4
  %add.i.i = add nsw i32 %6, %5
  store i32 %add.i.i, i32* %__idx.i.i, align 4
  %7 = bitcast %"class.Kalmar::__index_leaf"* %agg.tmp.i to i8*
  %8 = bitcast %"class.Kalmar::__index_leaf"* %this1.i.i to i8*
  call void @llvm.memcpy.p0i8.p0i8.i64(i8* %7, i8* %8, i64 8, i32 4, i1 false) #3
  %9 = bitcast %"struct.Kalmar::index_impl.1"* %this1.i to i8*
  %add.ptr.i = getelementptr inbounds i8, i8* %9, i64 8
  %10 = bitcast i8* %add.ptr.i to %"class.Kalmar::__index_leaf.2"*
  %11 = load i32, i32* %__t.addr.i, align 4
  store %"class.Kalmar::__index_leaf.2"* %10, %"class.Kalmar::__index_leaf.2"** %this.addr.i5.i, align 8
  store i32 %11, i32* %__t.addr.i6.i, align 4
  %this1.i7.i = load %"class.Kalmar::__index_leaf.2"*, %"class.Kalmar::__index_leaf.2"** %this.addr.i5.i, align 8
  %12 = load i32, i32* %__t.addr.i6.i, align 4
  %__idx.i8.i = getelementptr inbounds %"class.Kalmar::__index_leaf.2", %"class.Kalmar::__index_leaf.2"* %this1.i7.i, i32 0, i32 0
  %13 = load i32, i32* %__idx.i8.i, align 4
  %add.i9.i = add nsw i32 %13, %12
  store i32 %add.i9.i, i32* %__idx.i8.i, align 4
  %14 = bitcast %"class.Kalmar::__index_leaf.2"* %agg.tmp2.i to i8*
  %15 = bitcast %"class.Kalmar::__index_leaf.2"* %this1.i7.i to i8*
  call void @llvm.memcpy.p0i8.p0i8.i64(i8* %14, i8* %15, i64 8, i32 4, i1 false) #3
  %16 = bitcast %"class.Kalmar::__index_leaf"* %agg.tmp.i to i64*
  %17 = load i64, i64* %16, align 4
  %18 = bitcast %"class.Kalmar::__index_leaf.2"* %agg.tmp2.i to i64*
  %19 = load i64, i64* %18, align 4
  %20 = bitcast %"class.Kalmar::__index_leaf"* %1 to i64*
  store i64 %17, i64* %20, align 4
  %21 = bitcast %"class.Kalmar::__index_leaf.2"* %2 to i64*
  store i64 %19, i64* %21, align 4
  store %"struct.Kalmar::index_impl.1"* %this1.i, %"struct.Kalmar::index_impl.1"** %this.addr.i4.i, align 8
  %this2.i.i = load %"struct.Kalmar::index_impl.1"*, %"struct.Kalmar::index_impl.1"** %this.addr.i4.i, align 8
  ret %"class.Kalmar::index.0"* %this1
}

; Function Attrs: alwaysinline uwtable
define weak_odr void @_ZN6Kalmar5indexILi2EEppEi(%"class.Kalmar::index.0"* noalias sret %agg.result, %"class.Kalmar::index.0"* %this, i32) #4 align 2 {
  %this.addr.i5.i = alloca %"class.Kalmar::__index_leaf.2"*, align 8
  %__t.addr.i6.i = alloca i32, align 4
  %2 = alloca %"class.Kalmar::__index_leaf", align 4
  %3 = alloca %"class.Kalmar::__index_leaf.2", align 4
  %this.addr.i4.i = alloca %"struct.Kalmar::index_impl.1"*, align 8
  %this.addr.i.i2 = alloca %"class.Kalmar::__index_leaf"*, align 8
  %__t.addr.i.i = alloca i32, align 4
  %this.addr.i3 = alloca %"struct.Kalmar::index_impl.1"*, align 8
  %__t.addr.i = alloca i32, align 4
  %agg.tmp.i = alloca %"class.Kalmar::__index_leaf", align 4
  %agg.tmp2.i = alloca %"class.Kalmar::__index_leaf.2", align 4
  %this.addr.i4.i.i.i = alloca %"class.Kalmar::__index_leaf.2"*, align 8
  %this.addr.i4.i.i.i.i = alloca %"class.Kalmar::__index_leaf.2"*, align 8
  %__t.addr.i5.i.i.i.i = alloca i32, align 4
  %this.addr.i.i.i.i.i = alloca %"class.Kalmar::__index_leaf"*, align 8
  %__t.addr.i.i.i.i.i = alloca i32, align 4
  %this.addr.i3.i.i.i = alloca %"struct.Kalmar::index_impl.1"*, align 8
  %__u.addr.i.i.i.i = alloca i32, align 4
  %__u.addr2.i.i.i.i = alloca i32, align 4
  %this.addr.i.i.i.i = alloca %"class.Kalmar::__index_leaf"*, align 8
  %this.addr.i.i.i = alloca %"struct.Kalmar::index_impl.1"*, align 8
  %other.addr.i.i.i = alloca %"struct.Kalmar::index_impl.1"*, align 8
  %this.addr.i.i = alloca %"class.Kalmar::index.0"*, align 8
  %other.addr.i.i = alloca %"class.Kalmar::index.0"*, align 8
  %this.addr.i = alloca %"class.Kalmar::index.0"*, align 8
  %other.addr.i = alloca %"class.Kalmar::index.0"*, align 8
  %this.addr = alloca %"class.Kalmar::index.0"*, align 8
  %.addr = alloca i32, align 4
  store %"class.Kalmar::index.0"* %this, %"class.Kalmar::index.0"** %this.addr, align 8
  store i32 %0, i32* %.addr, align 4
  %this1 = load %"class.Kalmar::index.0"*, %"class.Kalmar::index.0"** %this.addr, align 8
  store %"class.Kalmar::index.0"* %agg.result, %"class.Kalmar::index.0"** %this.addr.i, align 8
  store %"class.Kalmar::index.0"* %this1, %"class.Kalmar::index.0"** %other.addr.i, align 8
  %this1.i = load %"class.Kalmar::index.0"*, %"class.Kalmar::index.0"** %this.addr.i, align 8
  %4 = load %"class.Kalmar::index.0"*, %"class.Kalmar::index.0"** %other.addr.i, align 8
  store %"class.Kalmar::index.0"* %this1.i, %"class.Kalmar::index.0"** %this.addr.i.i, align 8
  store %"class.Kalmar::index.0"* %4, %"class.Kalmar::index.0"** %other.addr.i.i, align 8
  %this1.i.i = load %"class.Kalmar::index.0"*, %"class.Kalmar::index.0"** %this.addr.i.i, align 8
  %base_.i.i = getelementptr inbounds %"class.Kalmar::index.0", %"class.Kalmar::index.0"* %this1.i.i, i32 0, i32 0
  %5 = load %"class.Kalmar::index.0"*, %"class.Kalmar::index.0"** %other.addr.i.i, align 8
  %base_2.i.i = getelementptr inbounds %"class.Kalmar::index.0", %"class.Kalmar::index.0"* %5, i32 0, i32 0
  store %"struct.Kalmar::index_impl.1"* %base_.i.i, %"struct.Kalmar::index_impl.1"** %this.addr.i.i.i, align 8
  store %"struct.Kalmar::index_impl.1"* %base_2.i.i, %"struct.Kalmar::index_impl.1"** %other.addr.i.i.i, align 8
  %this1.i.i.i = load %"struct.Kalmar::index_impl.1"*, %"struct.Kalmar::index_impl.1"** %this.addr.i.i.i, align 8
  %6 = load %"struct.Kalmar::index_impl.1"*, %"struct.Kalmar::index_impl.1"** %other.addr.i.i.i, align 8
  %7 = bitcast %"struct.Kalmar::index_impl.1"* %6 to %"class.Kalmar::__index_leaf"*
  store %"class.Kalmar::__index_leaf"* %7, %"class.Kalmar::__index_leaf"** %this.addr.i.i.i.i, align 8
  %this1.i.i.i.i = load %"class.Kalmar::__index_leaf"*, %"class.Kalmar::__index_leaf"** %this.addr.i.i.i.i, align 8
  %__idx.i.i.i.i = getelementptr inbounds %"class.Kalmar::__index_leaf", %"class.Kalmar::__index_leaf"* %this1.i.i.i.i, i32 0, i32 0
  %8 = load i32, i32* %__idx.i.i.i.i, align 4
  %9 = load %"struct.Kalmar::index_impl.1"*, %"struct.Kalmar::index_impl.1"** %other.addr.i.i.i, align 8
  %10 = bitcast %"struct.Kalmar::index_impl.1"* %9 to i8*
  %add.ptr.i.i.i = getelementptr inbounds i8, i8* %10, i64 8
  %11 = bitcast i8* %add.ptr.i.i.i to %"class.Kalmar::__index_leaf.2"*
  store %"class.Kalmar::__index_leaf.2"* %11, %"class.Kalmar::__index_leaf.2"** %this.addr.i4.i.i.i, align 8
  %this1.i5.i.i.i = load %"class.Kalmar::__index_leaf.2"*, %"class.Kalmar::__index_leaf.2"** %this.addr.i4.i.i.i, align 8
  %__idx.i6.i.i.i = getelementptr inbounds %"class.Kalmar::__index_leaf.2", %"class.Kalmar::__index_leaf.2"* %this1.i5.i.i.i, i32 0, i32 0
  %12 = load i32, i32* %__idx.i6.i.i.i, align 4
  store %"struct.Kalmar::index_impl.1"* %this1.i.i.i, %"struct.Kalmar::index_impl.1"** %this.addr.i3.i.i.i, align 8
  store i32 %8, i32* %__u.addr.i.i.i.i, align 4
  store i32 %12, i32* %__u.addr2.i.i.i.i, align 4
  %this3.i.i.i.i = load %"struct.Kalmar::index_impl.1"*, %"struct.Kalmar::index_impl.1"** %this.addr.i3.i.i.i, align 8
  %13 = bitcast %"struct.Kalmar::index_impl.1"* %this3.i.i.i.i to %"class.Kalmar::__index_leaf"*
  %14 = load i32, i32* %__u.addr.i.i.i.i, align 4
  store %"class.Kalmar::__index_leaf"* %13, %"class.Kalmar::__index_leaf"** %this.addr.i.i.i.i.i, align 8
  store i32 %14, i32* %__t.addr.i.i.i.i.i, align 4
  %this1.i.i.i.i.i = load %"class.Kalmar::__index_leaf"*, %"class.Kalmar::__index_leaf"** %this.addr.i.i.i.i.i, align 8
  %__idx.i.i.i.i.i = getelementptr inbounds %"class.Kalmar::__index_leaf", %"class.Kalmar::__index_leaf"* %this1.i.i.i.i.i, i32 0, i32 0
  %15 = load i32, i32* %__t.addr.i.i.i.i.i, align 4
  store i32 %15, i32* %__idx.i.i.i.i.i, align 4
  %16 = bitcast %"struct.Kalmar::index_impl.1"* %this3.i.i.i.i to i8*
  %17 = getelementptr inbounds i8, i8* %16, i64 8
  %18 = bitcast i8* %17 to %"class.Kalmar::__index_leaf.2"*
  %19 = load i32, i32* %__u.addr2.i.i.i.i, align 4
  store %"class.Kalmar::__index_leaf.2"* %18, %"class.Kalmar::__index_leaf.2"** %this.addr.i4.i.i.i.i, align 8
  store i32 %19, i32* %__t.addr.i5.i.i.i.i, align 4
  %this1.i6.i.i.i.i = load %"class.Kalmar::__index_leaf.2"*, %"class.Kalmar::__index_leaf.2"** %this.addr.i4.i.i.i.i, align 8
  %__idx.i7.i.i.i.i = getelementptr inbounds %"class.Kalmar::__index_leaf.2", %"class.Kalmar::__index_leaf.2"* %this1.i6.i.i.i.i, i32 0, i32 0
  %20 = load i32, i32* %__t.addr.i5.i.i.i.i, align 4
  store i32 %20, i32* %__idx.i7.i.i.i.i, align 4
  %base_ = getelementptr inbounds %"class.Kalmar::index.0", %"class.Kalmar::index.0"* %this1, i32 0, i32 0
  store %"struct.Kalmar::index_impl.1"* %base_, %"struct.Kalmar::index_impl.1"** %this.addr.i3, align 8
  store i32 1, i32* %__t.addr.i, align 4
  %this1.i4 = load %"struct.Kalmar::index_impl.1"*, %"struct.Kalmar::index_impl.1"** %this.addr.i3, align 8
  %21 = bitcast %"struct.Kalmar::index_impl.1"* %this1.i4 to %"class.Kalmar::__index_leaf"*
  %22 = load i32, i32* %__t.addr.i, align 4
  store %"class.Kalmar::__index_leaf"* %21, %"class.Kalmar::__index_leaf"** %this.addr.i.i2, align 8
  store i32 %22, i32* %__t.addr.i.i, align 4
  %this1.i.i5 = load %"class.Kalmar::__index_leaf"*, %"class.Kalmar::__index_leaf"** %this.addr.i.i2, align 8
  %23 = load i32, i32* %__t.addr.i.i, align 4
  %__idx.i.i = getelementptr inbounds %"class.Kalmar::__index_leaf", %"class.Kalmar::__index_leaf"* %this1.i.i5, i32 0, i32 0
  %24 = load i32, i32* %__idx.i.i, align 4
  %add.i.i = add nsw i32 %24, %23
  store i32 %add.i.i, i32* %__idx.i.i, align 4
  %25 = bitcast %"class.Kalmar::__index_leaf"* %agg.tmp.i to i8*
  %26 = bitcast %"class.Kalmar::__index_leaf"* %this1.i.i5 to i8*
  call void @llvm.memcpy.p0i8.p0i8.i64(i8* %25, i8* %26, i64 8, i32 4, i1 false) #3
  %27 = bitcast %"struct.Kalmar::index_impl.1"* %this1.i4 to i8*
  %add.ptr.i = getelementptr inbounds i8, i8* %27, i64 8
  %28 = bitcast i8* %add.ptr.i to %"class.Kalmar::__index_leaf.2"*
  %29 = load i32, i32* %__t.addr.i, align 4
  store %"class.Kalmar::__index_leaf.2"* %28, %"class.Kalmar::__index_leaf.2"** %this.addr.i5.i, align 8
  store i32 %29, i32* %__t.addr.i6.i, align 4
  %this1.i7.i = load %"class.Kalmar::__index_leaf.2"*, %"class.Kalmar::__index_leaf.2"** %this.addr.i5.i, align 8
  %30 = load i32, i32* %__t.addr.i6.i, align 4
  %__idx.i8.i = getelementptr inbounds %"class.Kalmar::__index_leaf.2", %"class.Kalmar::__index_leaf.2"* %this1.i7.i, i32 0, i32 0
  %31 = load i32, i32* %__idx.i8.i, align 4
  %add.i9.i = add nsw i32 %31, %30
  store i32 %add.i9.i, i32* %__idx.i8.i, align 4
  %32 = bitcast %"class.Kalmar::__index_leaf.2"* %agg.tmp2.i to i8*
  %33 = bitcast %"class.Kalmar::__index_leaf.2"* %this1.i7.i to i8*
  call void @llvm.memcpy.p0i8.p0i8.i64(i8* %32, i8* %33, i64 8, i32 4, i1 false) #3
  %34 = bitcast %"class.Kalmar::__index_leaf"* %agg.tmp.i to i64*
  %35 = load i64, i64* %34, align 4
  %36 = bitcast %"class.Kalmar::__index_leaf.2"* %agg.tmp2.i to i64*
  %37 = load i64, i64* %36, align 4
  %38 = bitcast %"class.Kalmar::__index_leaf"* %2 to i64*
  store i64 %35, i64* %38, align 4
  %39 = bitcast %"class.Kalmar::__index_leaf.2"* %3 to i64*
  store i64 %37, i64* %39, align 4
  store %"struct.Kalmar::index_impl.1"* %this1.i4, %"struct.Kalmar::index_impl.1"** %this.addr.i4.i, align 8
  %this2.i.i = load %"struct.Kalmar::index_impl.1"*, %"struct.Kalmar::index_impl.1"** %this.addr.i4.i, align 8
  ret void
}

; Function Attrs: alwaysinline uwtable
define weak_odr dereferenceable(16) %"class.Kalmar::index.0"* @_ZN6Kalmar5indexILi2EEmmEv(%"class.Kalmar::index.0"* %this) #4 align 2 {
  %this.addr.i5.i = alloca %"class.Kalmar::__index_leaf.2"*, align 8
  %__t.addr.i6.i = alloca i32, align 4
  %1 = alloca %"class.Kalmar::__index_leaf", align 4
  %2 = alloca %"class.Kalmar::__index_leaf.2", align 4
  %this.addr.i4.i = alloca %"struct.Kalmar::index_impl.1"*, align 8
  %this.addr.i.i = alloca %"class.Kalmar::__index_leaf"*, align 8
  %__t.addr.i.i = alloca i32, align 4
  %this.addr.i = alloca %"struct.Kalmar::index_impl.1"*, align 8
  %__t.addr.i = alloca i32, align 4
  %agg.tmp.i = alloca %"class.Kalmar::__index_leaf", align 4
  %agg.tmp2.i = alloca %"class.Kalmar::__index_leaf.2", align 4
  %this.addr = alloca %"class.Kalmar::index.0"*, align 8
  store %"class.Kalmar::index.0"* %this, %"class.Kalmar::index.0"** %this.addr, align 8
  %this1 = load %"class.Kalmar::index.0"*, %"class.Kalmar::index.0"** %this.addr, align 8
  %base_ = getelementptr inbounds %"class.Kalmar::index.0", %"class.Kalmar::index.0"* %this1, i32 0, i32 0
  store %"struct.Kalmar::index_impl.1"* %base_, %"struct.Kalmar::index_impl.1"** %this.addr.i, align 8
  store i32 1, i32* %__t.addr.i, align 4
  %this1.i = load %"struct.Kalmar::index_impl.1"*, %"struct.Kalmar::index_impl.1"** %this.addr.i, align 8
  %3 = bitcast %"struct.Kalmar::index_impl.1"* %this1.i to %"class.Kalmar::__index_leaf"*
  %4 = load i32, i32* %__t.addr.i, align 4
  store %"class.Kalmar::__index_leaf"* %3, %"class.Kalmar::__index_leaf"** %this.addr.i.i, align 8
  store i32 %4, i32* %__t.addr.i.i, align 4
  %this1.i.i = load %"class.Kalmar::__index_leaf"*, %"class.Kalmar::__index_leaf"** %this.addr.i.i, align 8
  %5 = load i32, i32* %__t.addr.i.i, align 4
  %__idx.i.i = getelementptr inbounds %"class.Kalmar::__index_leaf", %"class.Kalmar::__index_leaf"* %this1.i.i, i32 0, i32 0
  %6 = load i32, i32* %__idx.i.i, align 4
  %sub.i.i = sub nsw i32 %6, %5
  store i32 %sub.i.i, i32* %__idx.i.i, align 4
  %7 = bitcast %"class.Kalmar::__index_leaf"* %agg.tmp.i to i8*
  %8 = bitcast %"class.Kalmar::__index_leaf"* %this1.i.i to i8*
  call void @llvm.memcpy.p0i8.p0i8.i64(i8* %7, i8* %8, i64 8, i32 4, i1 false) #3
  %9 = bitcast %"struct.Kalmar::index_impl.1"* %this1.i to i8*
  %add.ptr.i = getelementptr inbounds i8, i8* %9, i64 8
  %10 = bitcast i8* %add.ptr.i to %"class.Kalmar::__index_leaf.2"*
  %11 = load i32, i32* %__t.addr.i, align 4
  store %"class.Kalmar::__index_leaf.2"* %10, %"class.Kalmar::__index_leaf.2"** %this.addr.i5.i, align 8
  store i32 %11, i32* %__t.addr.i6.i, align 4
  %this1.i7.i = load %"class.Kalmar::__index_leaf.2"*, %"class.Kalmar::__index_leaf.2"** %this.addr.i5.i, align 8
  %12 = load i32, i32* %__t.addr.i6.i, align 4
  %__idx.i8.i = getelementptr inbounds %"class.Kalmar::__index_leaf.2", %"class.Kalmar::__index_leaf.2"* %this1.i7.i, i32 0, i32 0
  %13 = load i32, i32* %__idx.i8.i, align 4
  %sub.i9.i = sub nsw i32 %13, %12
  store i32 %sub.i9.i, i32* %__idx.i8.i, align 4
  %14 = bitcast %"class.Kalmar::__index_leaf.2"* %agg.tmp2.i to i8*
  %15 = bitcast %"class.Kalmar::__index_leaf.2"* %this1.i7.i to i8*
  call void @llvm.memcpy.p0i8.p0i8.i64(i8* %14, i8* %15, i64 8, i32 4, i1 false) #3
  %16 = bitcast %"class.Kalmar::__index_leaf"* %agg.tmp.i to i64*
  %17 = load i64, i64* %16, align 4
  %18 = bitcast %"class.Kalmar::__index_leaf.2"* %agg.tmp2.i to i64*
  %19 = load i64, i64* %18, align 4
  %20 = bitcast %"class.Kalmar::__index_leaf"* %1 to i64*
  store i64 %17, i64* %20, align 4
  %21 = bitcast %"class.Kalmar::__index_leaf.2"* %2 to i64*
  store i64 %19, i64* %21, align 4
  store %"struct.Kalmar::index_impl.1"* %this1.i, %"struct.Kalmar::index_impl.1"** %this.addr.i4.i, align 8
  %this2.i.i = load %"struct.Kalmar::index_impl.1"*, %"struct.Kalmar::index_impl.1"** %this.addr.i4.i, align 8
  ret %"class.Kalmar::index.0"* %this1
}

; Function Attrs: alwaysinline uwtable
define weak_odr void @_ZN6Kalmar5indexILi2EEmmEi(%"class.Kalmar::index.0"* noalias sret %agg.result, %"class.Kalmar::index.0"* %this, i32) #4 align 2 {
  %this.addr.i5.i = alloca %"class.Kalmar::__index_leaf.2"*, align 8
  %__t.addr.i6.i = alloca i32, align 4
  %2 = alloca %"class.Kalmar::__index_leaf", align 4
  %3 = alloca %"class.Kalmar::__index_leaf.2", align 4
  %this.addr.i4.i = alloca %"struct.Kalmar::index_impl.1"*, align 8
  %this.addr.i.i2 = alloca %"class.Kalmar::__index_leaf"*, align 8
  %__t.addr.i.i = alloca i32, align 4
  %this.addr.i3 = alloca %"struct.Kalmar::index_impl.1"*, align 8
  %__t.addr.i = alloca i32, align 4
  %agg.tmp.i = alloca %"class.Kalmar::__index_leaf", align 4
  %agg.tmp2.i = alloca %"class.Kalmar::__index_leaf.2", align 4
  %this.addr.i4.i.i.i = alloca %"class.Kalmar::__index_leaf.2"*, align 8
  %this.addr.i4.i.i.i.i = alloca %"class.Kalmar::__index_leaf.2"*, align 8
  %__t.addr.i5.i.i.i.i = alloca i32, align 4
  %this.addr.i.i.i.i.i = alloca %"class.Kalmar::__index_leaf"*, align 8
  %__t.addr.i.i.i.i.i = alloca i32, align 4
  %this.addr.i3.i.i.i = alloca %"struct.Kalmar::index_impl.1"*, align 8
  %__u.addr.i.i.i.i = alloca i32, align 4
  %__u.addr2.i.i.i.i = alloca i32, align 4
  %this.addr.i.i.i.i = alloca %"class.Kalmar::__index_leaf"*, align 8
  %this.addr.i.i.i = alloca %"struct.Kalmar::index_impl.1"*, align 8
  %other.addr.i.i.i = alloca %"struct.Kalmar::index_impl.1"*, align 8
  %this.addr.i.i = alloca %"class.Kalmar::index.0"*, align 8
  %other.addr.i.i = alloca %"class.Kalmar::index.0"*, align 8
  %this.addr.i = alloca %"class.Kalmar::index.0"*, align 8
  %other.addr.i = alloca %"class.Kalmar::index.0"*, align 8
  %this.addr = alloca %"class.Kalmar::index.0"*, align 8
  %.addr = alloca i32, align 4
  store %"class.Kalmar::index.0"* %this, %"class.Kalmar::index.0"** %this.addr, align 8
  store i32 %0, i32* %.addr, align 4
  %this1 = load %"class.Kalmar::index.0"*, %"class.Kalmar::index.0"** %this.addr, align 8
  store %"class.Kalmar::index.0"* %agg.result, %"class.Kalmar::index.0"** %this.addr.i, align 8
  store %"class.Kalmar::index.0"* %this1, %"class.Kalmar::index.0"** %other.addr.i, align 8
  %this1.i = load %"class.Kalmar::index.0"*, %"class.Kalmar::index.0"** %this.addr.i, align 8
  %4 = load %"class.Kalmar::index.0"*, %"class.Kalmar::index.0"** %other.addr.i, align 8
  store %"class.Kalmar::index.0"* %this1.i, %"class.Kalmar::index.0"** %this.addr.i.i, align 8
  store %"class.Kalmar::index.0"* %4, %"class.Kalmar::index.0"** %other.addr.i.i, align 8
  %this1.i.i = load %"class.Kalmar::index.0"*, %"class.Kalmar::index.0"** %this.addr.i.i, align 8
  %base_.i.i = getelementptr inbounds %"class.Kalmar::index.0", %"class.Kalmar::index.0"* %this1.i.i, i32 0, i32 0
  %5 = load %"class.Kalmar::index.0"*, %"class.Kalmar::index.0"** %other.addr.i.i, align 8
  %base_2.i.i = getelementptr inbounds %"class.Kalmar::index.0", %"class.Kalmar::index.0"* %5, i32 0, i32 0
  store %"struct.Kalmar::index_impl.1"* %base_.i.i, %"struct.Kalmar::index_impl.1"** %this.addr.i.i.i, align 8
  store %"struct.Kalmar::index_impl.1"* %base_2.i.i, %"struct.Kalmar::index_impl.1"** %other.addr.i.i.i, align 8
  %this1.i.i.i = load %"struct.Kalmar::index_impl.1"*, %"struct.Kalmar::index_impl.1"** %this.addr.i.i.i, align 8
  %6 = load %"struct.Kalmar::index_impl.1"*, %"struct.Kalmar::index_impl.1"** %other.addr.i.i.i, align 8
  %7 = bitcast %"struct.Kalmar::index_impl.1"* %6 to %"class.Kalmar::__index_leaf"*
  store %"class.Kalmar::__index_leaf"* %7, %"class.Kalmar::__index_leaf"** %this.addr.i.i.i.i, align 8
  %this1.i.i.i.i = load %"class.Kalmar::__index_leaf"*, %"class.Kalmar::__index_leaf"** %this.addr.i.i.i.i, align 8
  %__idx.i.i.i.i = getelementptr inbounds %"class.Kalmar::__index_leaf", %"class.Kalmar::__index_leaf"* %this1.i.i.i.i, i32 0, i32 0
  %8 = load i32, i32* %__idx.i.i.i.i, align 4
  %9 = load %"struct.Kalmar::index_impl.1"*, %"struct.Kalmar::index_impl.1"** %other.addr.i.i.i, align 8
  %10 = bitcast %"struct.Kalmar::index_impl.1"* %9 to i8*
  %add.ptr.i.i.i = getelementptr inbounds i8, i8* %10, i64 8
  %11 = bitcast i8* %add.ptr.i.i.i to %"class.Kalmar::__index_leaf.2"*
  store %"class.Kalmar::__index_leaf.2"* %11, %"class.Kalmar::__index_leaf.2"** %this.addr.i4.i.i.i, align 8
  %this1.i5.i.i.i = load %"class.Kalmar::__index_leaf.2"*, %"class.Kalmar::__index_leaf.2"** %this.addr.i4.i.i.i, align 8
  %__idx.i6.i.i.i = getelementptr inbounds %"class.Kalmar::__index_leaf.2", %"class.Kalmar::__index_leaf.2"* %this1.i5.i.i.i, i32 0, i32 0
  %12 = load i32, i32* %__idx.i6.i.i.i, align 4
  store %"struct.Kalmar::index_impl.1"* %this1.i.i.i, %"struct.Kalmar::index_impl.1"** %this.addr.i3.i.i.i, align 8
  store i32 %8, i32* %__u.addr.i.i.i.i, align 4
  store i32 %12, i32* %__u.addr2.i.i.i.i, align 4
  %this3.i.i.i.i = load %"struct.Kalmar::index_impl.1"*, %"struct.Kalmar::index_impl.1"** %this.addr.i3.i.i.i, align 8
  %13 = bitcast %"struct.Kalmar::index_impl.1"* %this3.i.i.i.i to %"class.Kalmar::__index_leaf"*
  %14 = load i32, i32* %__u.addr.i.i.i.i, align 4
  store %"class.Kalmar::__index_leaf"* %13, %"class.Kalmar::__index_leaf"** %this.addr.i.i.i.i.i, align 8
  store i32 %14, i32* %__t.addr.i.i.i.i.i, align 4
  %this1.i.i.i.i.i = load %"class.Kalmar::__index_leaf"*, %"class.Kalmar::__index_leaf"** %this.addr.i.i.i.i.i, align 8
  %__idx.i.i.i.i.i = getelementptr inbounds %"class.Kalmar::__index_leaf", %"class.Kalmar::__index_leaf"* %this1.i.i.i.i.i, i32 0, i32 0
  %15 = load i32, i32* %__t.addr.i.i.i.i.i, align 4
  store i32 %15, i32* %__idx.i.i.i.i.i, align 4
  %16 = bitcast %"struct.Kalmar::index_impl.1"* %this3.i.i.i.i to i8*
  %17 = getelementptr inbounds i8, i8* %16, i64 8
  %18 = bitcast i8* %17 to %"class.Kalmar::__index_leaf.2"*
  %19 = load i32, i32* %__u.addr2.i.i.i.i, align 4
  store %"class.Kalmar::__index_leaf.2"* %18, %"class.Kalmar::__index_leaf.2"** %this.addr.i4.i.i.i.i, align 8
  store i32 %19, i32* %__t.addr.i5.i.i.i.i, align 4
  %this1.i6.i.i.i.i = load %"class.Kalmar::__index_leaf.2"*, %"class.Kalmar::__index_leaf.2"** %this.addr.i4.i.i.i.i, align 8
  %__idx.i7.i.i.i.i = getelementptr inbounds %"class.Kalmar::__index_leaf.2", %"class.Kalmar::__index_leaf.2"* %this1.i6.i.i.i.i, i32 0, i32 0
  %20 = load i32, i32* %__t.addr.i5.i.i.i.i, align 4
  store i32 %20, i32* %__idx.i7.i.i.i.i, align 4
  %base_ = getelementptr inbounds %"class.Kalmar::index.0", %"class.Kalmar::index.0"* %this1, i32 0, i32 0
  store %"struct.Kalmar::index_impl.1"* %base_, %"struct.Kalmar::index_impl.1"** %this.addr.i3, align 8
  store i32 1, i32* %__t.addr.i, align 4
  %this1.i4 = load %"struct.Kalmar::index_impl.1"*, %"struct.Kalmar::index_impl.1"** %this.addr.i3, align 8
  %21 = bitcast %"struct.Kalmar::index_impl.1"* %this1.i4 to %"class.Kalmar::__index_leaf"*
  %22 = load i32, i32* %__t.addr.i, align 4
  store %"class.Kalmar::__index_leaf"* %21, %"class.Kalmar::__index_leaf"** %this.addr.i.i2, align 8
  store i32 %22, i32* %__t.addr.i.i, align 4
  %this1.i.i5 = load %"class.Kalmar::__index_leaf"*, %"class.Kalmar::__index_leaf"** %this.addr.i.i2, align 8
  %23 = load i32, i32* %__t.addr.i.i, align 4
  %__idx.i.i = getelementptr inbounds %"class.Kalmar::__index_leaf", %"class.Kalmar::__index_leaf"* %this1.i.i5, i32 0, i32 0
  %24 = load i32, i32* %__idx.i.i, align 4
  %sub.i.i = sub nsw i32 %24, %23
  store i32 %sub.i.i, i32* %__idx.i.i, align 4
  %25 = bitcast %"class.Kalmar::__index_leaf"* %agg.tmp.i to i8*
  %26 = bitcast %"class.Kalmar::__index_leaf"* %this1.i.i5 to i8*
  call void @llvm.memcpy.p0i8.p0i8.i64(i8* %25, i8* %26, i64 8, i32 4, i1 false) #3
  %27 = bitcast %"struct.Kalmar::index_impl.1"* %this1.i4 to i8*
  %add.ptr.i = getelementptr inbounds i8, i8* %27, i64 8
  %28 = bitcast i8* %add.ptr.i to %"class.Kalmar::__index_leaf.2"*
  %29 = load i32, i32* %__t.addr.i, align 4
  store %"class.Kalmar::__index_leaf.2"* %28, %"class.Kalmar::__index_leaf.2"** %this.addr.i5.i, align 8
  store i32 %29, i32* %__t.addr.i6.i, align 4
  %this1.i7.i = load %"class.Kalmar::__index_leaf.2"*, %"class.Kalmar::__index_leaf.2"** %this.addr.i5.i, align 8
  %30 = load i32, i32* %__t.addr.i6.i, align 4
  %__idx.i8.i = getelementptr inbounds %"class.Kalmar::__index_leaf.2", %"class.Kalmar::__index_leaf.2"* %this1.i7.i, i32 0, i32 0
  %31 = load i32, i32* %__idx.i8.i, align 4
  %sub.i9.i = sub nsw i32 %31, %30
  store i32 %sub.i9.i, i32* %__idx.i8.i, align 4
  %32 = bitcast %"class.Kalmar::__index_leaf.2"* %agg.tmp2.i to i8*
  %33 = bitcast %"class.Kalmar::__index_leaf.2"* %this1.i7.i to i8*
  call void @llvm.memcpy.p0i8.p0i8.i64(i8* %32, i8* %33, i64 8, i32 4, i1 false) #3
  %34 = bitcast %"class.Kalmar::__index_leaf"* %agg.tmp.i to i64*
  %35 = load i64, i64* %34, align 4
  %36 = bitcast %"class.Kalmar::__index_leaf.2"* %agg.tmp2.i to i64*
  %37 = load i64, i64* %36, align 4
  %38 = bitcast %"class.Kalmar::__index_leaf"* %2 to i64*
  store i64 %35, i64* %38, align 4
  %39 = bitcast %"class.Kalmar::__index_leaf.2"* %3 to i64*
  store i64 %37, i64* %39, align 4
  store %"struct.Kalmar::index_impl.1"* %this1.i4, %"struct.Kalmar::index_impl.1"** %this.addr.i4.i, align 8
  %this2.i.i = load %"struct.Kalmar::index_impl.1"*, %"struct.Kalmar::index_impl.1"** %this.addr.i4.i, align 8
  ret void
}

; Function Attrs: alwaysinline uwtable
define weak_odr void @_ZN6Kalmar5indexILi3EEC2Ev(%"class.Kalmar::index.3"* %this) unnamed_addr #4 align 2 {
  %this.addr.i6.i = alloca %"class.Kalmar::__index_leaf.2"*, align 8
  %__t.addr.i7.i = alloca i32, align 4
  %this.addr.i2.i = alloca %"class.Kalmar::__index_leaf.5"*, align 8
  %__t.addr.i3.i = alloca i32, align 4
  %this.addr.i.i = alloca %"class.Kalmar::__index_leaf"*, align 8
  %__t.addr.i.i = alloca i32, align 4
  %this.addr.i = alloca %"struct.Kalmar::index_impl.4"*, align 8
  %this.addr = alloca %"class.Kalmar::index.3"*, align 8
  store %"class.Kalmar::index.3"* %this, %"class.Kalmar::index.3"** %this.addr, align 8
  %this1 = load %"class.Kalmar::index.3"*, %"class.Kalmar::index.3"** %this.addr, align 8
  %base_ = getelementptr inbounds %"class.Kalmar::index.3", %"class.Kalmar::index.3"* %this1, i32 0, i32 0
